SF:/home/martin/git/fugrip/src/collector_phases.rs
FN:101,_RINvMs_NtCs8zwcuAlrZd5_6fugrip16collector_phasesNtB5_12MutatorState12try_allocatelECsyXbmZjEexw_21collector_phase_tests
FN:1072,_RINvMs1_NtCs8zwcuAlrZd5_6fugrip16collector_phasesNtB6_14CollectorState21scan_all_live_objectsNCNvB2_35redirect_pointers_to_free_singleton0EB8_
FN:1088,_RINvMs1_NtCs8zwcuAlrZd5_6fugrip16collector_phasesNtB6_14CollectorState29scan_segment_for_live_objectsNCNvB2_35redirect_pointers_to_free_singleton0EB8_
FN:1134,_RNCNvMs1_NtCs8zwcuAlrZd5_6fugrip16collector_phasesNtB7_14CollectorState14reviving_phase0B9_
FN:1157,_RNCNvMs1_NtCs8zwcuAlrZd5_6fugrip16collector_phasesNtB7_14CollectorState15remarking_phase0B9_
FN:845,_RNCNvMs1_NtCs8zwcuAlrZd5_6fugrip16collector_phasesNtB7_14CollectorState16worker_suspended0B9_
FN:454,_RNCNvMs1_NtCs8zwcuAlrZd5_6fugrip16collector_phasesNtB7_14CollectorState17request_handshake0B9_
FN:347,_RNCNvMs1_NtCs8zwcuAlrZd5_6fugrip16collector_phasesNtB7_14CollectorState19start_marking_phase0B9_
FN:914,_RNCNvMs1_NtCs8zwcuAlrZd5_6fugrip16collector_phasesNtB7_14CollectorState19wait_for_suspension0B9_
FN:200,_RNCNvMs1_NtCs8zwcuAlrZd5_6fugrip16collector_phasesNtB7_14CollectorState21wait_for_phase_change0B9_
FN:258,_RNCNvMs1_NtCs8zwcuAlrZd5_6fugrip16collector_phasesNtB7_14CollectorState22register_thread_for_gc0B9_
FN:270,_RNCNvMs1_NtCs8zwcuAlrZd5_6fugrip16collector_phasesNtB7_14CollectorState25unregister_thread_from_gc0B9_
FN:991,_RNCNvMs1_NtCs8zwcuAlrZd5_6fugrip16collector_phasesNtB7_14CollectorState27sweep_all_segments_parallel0B9_
FN:281,_RNCNvMs1_NtCs8zwcuAlrZd5_6fugrip16collector_phasesNtB7_14CollectorState27update_thread_stack_pointer0B9_
FN:672,_RNCNvMs1_NtCs8zwcuAlrZd5_6fugrip16collector_phasesNtB7_14CollectorState28mark_registered_thread_roots0B9_
FN:1182,_RNCNvMs1_NtCs8zwcuAlrZd5_6fugrip16collector_phasesNtB7_14CollectorState34iterate_finalizer_objects_parallel0B9_
FN:1203,_RNCNvMs1_NtCs8zwcuAlrZd5_6fugrip16collector_phasesNtB7_14CollectorState34iterate_finalizer_objects_parallels0_0B9_
FN:1200,_RNCNvMs1_NtCs8zwcuAlrZd5_6fugrip16collector_phasesNtB7_14CollectorState34iterate_finalizer_objects_parallels_0B9_
FN:976,_RNCNvMs1_NtCs8zwcuAlrZd5_6fugrip16collector_phasesNtB7_14CollectorState35redirect_pointers_to_free_singleton0B9_
FN:172,_RNvMs1_NtCs8zwcuAlrZd5_6fugrip16collector_phasesNtB5_14CollectorState10is_marking
FN:998,_RNvMs1_NtCs8zwcuAlrZd5_6fugrip16collector_phasesNtB5_14CollectorState13sweep_segment
FN:356,_RNvMs1_NtCs8zwcuAlrZd5_6fugrip16collector_phasesNtB5_14CollectorState14marking_worker
FN:1119,_RNvMs1_NtCs8zwcuAlrZd5_6fugrip16collector_phasesNtB5_14CollectorState14reviving_phase
FN:946,_RNvMs1_NtCs8zwcuAlrZd5_6fugrip16collector_phasesNtB5_14CollectorState14sweeping_phase
FN:1141,_RNvMs1_NtCs8zwcuAlrZd5_6fugrip16collector_phasesNtB5_14CollectorState15remarking_phase
FN:547,_RNvMs1_NtCs8zwcuAlrZd5_6fugrip16collector_phasesNtB5_14CollectorState16scan_bss_segment
FN:867,_RNvMs1_NtCs8zwcuAlrZd5_6fugrip16collector_phasesNtB5_14CollectorState16suspend_for_fork
FN:837,_RNvMs1_NtCs8zwcuAlrZd5_6fugrip16collector_phasesNtB5_14CollectorState16worker_suspended
FN:487,_RNvMs1_NtCs8zwcuAlrZd5_6fugrip16collector_phasesNtB5_14CollectorState17mark_global_roots
FN:505,_RNvMs1_NtCs8zwcuAlrZd5_6fugrip16collector_phasesNtB5_14CollectorState17mark_static_roots
FN:693,_RNvMs1_NtCs8zwcuAlrZd5_6fugrip16collector_phasesNtB5_14CollectorState17mark_system_roots
FN:441,_RNvMs1_NtCs8zwcuAlrZd5_6fugrip16collector_phasesNtB5_14CollectorState17request_handshake
FN:879,_RNvMs1_NtCs8zwcuAlrZd5_6fugrip16collector_phasesNtB5_14CollectorState17resume_after_fork
FN:931,_RNvMs1_NtCs8zwcuAlrZd5_6fugrip16collector_phasesNtB5_14CollectorState17resume_collection
FN:514,_RNvMs1_NtCs8zwcuAlrZd5_6fugrip16collector_phasesNtB5_14CollectorState17scan_data_segment
FN:798,_RNvMs1_NtCs8zwcuAlrZd5_6fugrip16collector_phasesNtB5_14CollectorState18is_valid_type_info
FN:679,_RNvMs1_NtCs8zwcuAlrZd5_6fugrip16collector_phasesNtB5_14CollectorState18mark_thread_locals
FN:576,_RNvMs1_NtCs8zwcuAlrZd5_6fugrip16collector_phasesNtB5_14CollectorState18mark_thread_stacks
FN:176,_RNvMs1_NtCs8zwcuAlrZd5_6fugrip16collector_phasesNtB5_14CollectorState18request_collection
FN:890,_RNvMs1_NtCs8zwcuAlrZd5_6fugrip16collector_phasesNtB5_14CollectorState18request_suspension
FN:406,_RNvMs1_NtCs8zwcuAlrZd5_6fugrip16collector_phasesNtB5_14CollectorState18steal_marking_work
FN:423,_RNvMs1_NtCs8zwcuAlrZd5_6fugrip16collector_phasesNtB5_14CollectorState19donate_marking_work
FN:746,_RNvMs1_NtCs8zwcuAlrZd5_6fugrip16collector_phasesNtB5_14CollectorState19is_valid_gc_pointer
FN:328,_RNvMs1_NtCs8zwcuAlrZd5_6fugrip16collector_phasesNtB5_14CollectorState19start_marking_phase
FN:900,_RNvMs1_NtCs8zwcuAlrZd5_6fugrip16collector_phasesNtB5_14CollectorState19wait_for_suspension
FN:472,_RNvMs1_NtCs8zwcuAlrZd5_6fugrip16collector_phasesNtB5_14CollectorState21acknowledge_handshake
FN:780,_RNvMs1_NtCs8zwcuAlrZd5_6fugrip16collector_phasesNtB5_14CollectorState21is_within_heap_bounds
FN:198,_RNvMs1_NtCs8zwcuAlrZd5_6fugrip16collector_phasesNtB5_14CollectorState21wait_for_phase_change
FN:465,_RNvMs1_NtCs8zwcuAlrZd5_6fugrip16collector_phasesNtB5_14CollectorState22is_handshake_requested
FN:1044,_RNvMs1_NtCs8zwcuAlrZd5_6fugrip16collector_phasesNtB5_14CollectorState22is_valid_object_header
FN:585,_RNvMs1_NtCs8zwcuAlrZd5_6fugrip16collector_phasesNtB5_14CollectorState22mark_all_thread_stacks
FN:240,_RNvMs1_NtCs8zwcuAlrZd5_6fugrip16collector_phasesNtB5_14CollectorState22register_thread_for_gc
FN:217,_RNvMs1_NtCs8zwcuAlrZd5_6fugrip16collector_phasesNtB5_14CollectorState22register_worker_thread
FN:941,_RNvMs1_NtCs8zwcuAlrZd5_6fugrip16collector_phasesNtB5_14CollectorState23is_suspension_requested
FN:205,_RNvMs1_NtCs8zwcuAlrZd5_6fugrip16collector_phasesNtB5_14CollectorState23register_mutator_thread
FN:213,_RNvMs1_NtCs8zwcuAlrZd5_6fugrip16collector_phasesNtB5_14CollectorState24get_active_mutator_count
FN:221,_RNvMs1_NtCs8zwcuAlrZd5_6fugrip16collector_phasesNtB5_14CollectorState24unregister_worker_thread
FN:853,_RNvMs1_NtCs8zwcuAlrZd5_6fugrip16collector_phasesNtB5_14CollectorState25mark_current_thread_stack
FN:209,_RNvMs1_NtCs8zwcuAlrZd5_6fugrip16collector_phasesNtB5_14CollectorState25unregister_mutator_thread
FN:267,_RNvMs1_NtCs8zwcuAlrZd5_6fugrip16collector_phasesNtB5_14CollectorState25unregister_thread_from_gc
FN:815,_RNvMs1_NtCs8zwcuAlrZd5_6fugrip16collector_phasesNtB5_14CollectorState26is_valid_object_in_segment
FN:982,_RNvMs1_NtCs8zwcuAlrZd5_6fugrip16collector_phasesNtB5_14CollectorState27sweep_all_segments_parallel
FN:274,_RNvMs1_NtCs8zwcuAlrZd5_6fugrip16collector_phasesNtB5_14CollectorState27update_thread_stack_pointer
FN:622,_RNvMs1_NtCs8zwcuAlrZd5_6fugrip16collector_phasesNtB5_14CollectorState28mark_registered_thread_roots
FN:235,_RNvMs1_NtCs8zwcuAlrZd5_6fugrip16collector_phasesNtB5_14CollectorState29worker_acknowledge_resumption
FN:225,_RNvMs1_NtCs8zwcuAlrZd5_6fugrip16collector_phasesNtB5_14CollectorState29worker_acknowledge_suspension
FN:723,_RNvMs1_NtCs8zwcuAlrZd5_6fugrip16collector_phasesNtB5_14CollectorState30conservative_scan_memory_range
FN:290,_RNvMs1_NtCs8zwcuAlrZd5_6fugrip16collector_phasesNtB5_14CollectorState31get_current_thread_stack_bounds
FN:1170,_RNvMs1_NtCs8zwcuAlrZd5_6fugrip16collector_phasesNtB5_14CollectorState34iterate_finalizer_objects_parallel
FN:598,_RNvMs1_NtCs8zwcuAlrZd5_6fugrip16collector_phasesNtB5_14CollectorState34mark_current_thread_stack_with_psm
FN:966,_RNvMs1_NtCs8zwcuAlrZd5_6fugrip16collector_phasesNtB5_14CollectorState35redirect_pointers_to_free_singleton
FN:149,_RNvMs1_NtCs8zwcuAlrZd5_6fugrip16collector_phasesNtB5_14CollectorState3new
FN:192,_RNvMs1_NtCs8zwcuAlrZd5_6fugrip16collector_phasesNtB5_14CollectorState9set_phase
FN:127,_RNvMs_NtCs8zwcuAlrZd5_6fugrip16collector_phasesNtB4_12MutatorState15check_handshake
FN:92,_RNvMs_NtCs8zwcuAlrZd5_6fugrip16collector_phasesNtB4_12MutatorState3new
FN:1235,_RNvNtCs8zwcuAlrZd5_6fugrip16collector_phases12gc_safe_fork
FN:86,_RNvXNtCs8zwcuAlrZd5_6fugrip16collector_phasesNtB2_12MutatorStateNtNtCs6SNw0SRvItZ_4core7default7Default7default
FN:143,_RNvXs0_NtCs8zwcuAlrZd5_6fugrip16collector_phasesNtB5_14CollectorStateNtNtCs6SNw0SRvItZ_4core7default7Default7default
FN:101,_RINvMs_NtCs8zwcuAlrZd5_6fugrip16collector_phasesNtB5_12MutatorState12try_allocatelECs3VmZS5N4MlB_36collector_phases_comprehensive_tests
FN:101,_RINvMs_NtCs8zwcuAlrZd5_6fugrip16collector_phasesNtB5_12MutatorState12try_allocateAhj400_ECsiiqH71lh0E3_31collector_phases_expanded_tests
FN:101,_RINvMs_NtCs8zwcuAlrZd5_6fugrip16collector_phasesNtB5_12MutatorState12try_allocateINtNtCshDtJu3Ru83O_5alloc3vec3VechEECsiiqH71lh0E3_31collector_phases_expanded_tests
FN:101,_RINvMs_NtCs8zwcuAlrZd5_6fugrip16collector_phasesNtB5_12MutatorState12try_allocateNtNtCshDtJu3Ru83O_5alloc6string6StringECsiiqH71lh0E3_31collector_phases_expanded_tests
FN:101,_RINvMs_NtCs8zwcuAlrZd5_6fugrip16collector_phasesNtB5_12MutatorState12try_allocatehECsiiqH71lh0E3_31collector_phases_expanded_tests
FN:101,_RINvMs_NtCs8zwcuAlrZd5_6fugrip16collector_phasesNtB5_12MutatorState12try_allocatelECsiiqH71lh0E3_31collector_phases_expanded_tests
FN:149,_RNvMs1_NtCsluqq0SikYQ1_6fugrip16collector_phasesNtB5_14CollectorState3new
FN:1072,_RINvMs1_NtCsluqq0SikYQ1_6fugrip16collector_phasesNtB6_14CollectorState21scan_all_live_objectspEB8_
FN:1088,_RINvMs1_NtCsluqq0SikYQ1_6fugrip16collector_phasesNtB6_14CollectorState29scan_segment_for_live_objectspEB8_
FN:101,_RINvMs_NtCsluqq0SikYQ1_6fugrip16collector_phasesNtB5_12MutatorState12try_allocatepEB7_
FN:1134,_RNCNvMs1_NtCsluqq0SikYQ1_6fugrip16collector_phasesNtB7_14CollectorState14reviving_phase0B9_
FN:1157,_RNCNvMs1_NtCsluqq0SikYQ1_6fugrip16collector_phasesNtB7_14CollectorState15remarking_phase0B9_
FN:845,_RNCNvMs1_NtCsluqq0SikYQ1_6fugrip16collector_phasesNtB7_14CollectorState16worker_suspended0B9_
FN:454,_RNCNvMs1_NtCsluqq0SikYQ1_6fugrip16collector_phasesNtB7_14CollectorState17request_handshake0B9_
FN:347,_RNCNvMs1_NtCsluqq0SikYQ1_6fugrip16collector_phasesNtB7_14CollectorState19start_marking_phase0B9_
FN:914,_RNCNvMs1_NtCsluqq0SikYQ1_6fugrip16collector_phasesNtB7_14CollectorState19wait_for_suspension0B9_
FN:200,_RNCNvMs1_NtCsluqq0SikYQ1_6fugrip16collector_phasesNtB7_14CollectorState21wait_for_phase_change0B9_
FN:258,_RNCNvMs1_NtCsluqq0SikYQ1_6fugrip16collector_phasesNtB7_14CollectorState22register_thread_for_gc0B9_
FN:270,_RNCNvMs1_NtCsluqq0SikYQ1_6fugrip16collector_phasesNtB7_14CollectorState25unregister_thread_from_gc0B9_
FN:991,_RNCNvMs1_NtCsluqq0SikYQ1_6fugrip16collector_phasesNtB7_14CollectorState27sweep_all_segments_parallel0B9_
FN:281,_RNCNvMs1_NtCsluqq0SikYQ1_6fugrip16collector_phasesNtB7_14CollectorState27update_thread_stack_pointer0B9_
FN:672,_RNCNvMs1_NtCsluqq0SikYQ1_6fugrip16collector_phasesNtB7_14CollectorState28mark_registered_thread_roots0B9_
FN:1182,_RNCNvMs1_NtCsluqq0SikYQ1_6fugrip16collector_phasesNtB7_14CollectorState34iterate_finalizer_objects_parallel0B9_
FN:1203,_RNCNvMs1_NtCsluqq0SikYQ1_6fugrip16collector_phasesNtB7_14CollectorState34iterate_finalizer_objects_parallels0_0B9_
FN:1200,_RNCNvMs1_NtCsluqq0SikYQ1_6fugrip16collector_phasesNtB7_14CollectorState34iterate_finalizer_objects_parallels_0B9_
FN:976,_RNCNvMs1_NtCsluqq0SikYQ1_6fugrip16collector_phasesNtB7_14CollectorState35redirect_pointers_to_free_singleton0B9_
FN:172,_RNvMs1_NtCsluqq0SikYQ1_6fugrip16collector_phasesNtB5_14CollectorState10is_marking
FN:998,_RNvMs1_NtCsluqq0SikYQ1_6fugrip16collector_phasesNtB5_14CollectorState13sweep_segment
FN:356,_RNvMs1_NtCsluqq0SikYQ1_6fugrip16collector_phasesNtB5_14CollectorState14marking_worker
FN:1119,_RNvMs1_NtCsluqq0SikYQ1_6fugrip16collector_phasesNtB5_14CollectorState14reviving_phase
FN:946,_RNvMs1_NtCsluqq0SikYQ1_6fugrip16collector_phasesNtB5_14CollectorState14sweeping_phase
FN:1141,_RNvMs1_NtCsluqq0SikYQ1_6fugrip16collector_phasesNtB5_14CollectorState15remarking_phase
FN:547,_RNvMs1_NtCsluqq0SikYQ1_6fugrip16collector_phasesNtB5_14CollectorState16scan_bss_segment
FN:867,_RNvMs1_NtCsluqq0SikYQ1_6fugrip16collector_phasesNtB5_14CollectorState16suspend_for_fork
FN:837,_RNvMs1_NtCsluqq0SikYQ1_6fugrip16collector_phasesNtB5_14CollectorState16worker_suspended
FN:487,_RNvMs1_NtCsluqq0SikYQ1_6fugrip16collector_phasesNtB5_14CollectorState17mark_global_roots
FN:505,_RNvMs1_NtCsluqq0SikYQ1_6fugrip16collector_phasesNtB5_14CollectorState17mark_static_roots
FN:693,_RNvMs1_NtCsluqq0SikYQ1_6fugrip16collector_phasesNtB5_14CollectorState17mark_system_roots
FN:441,_RNvMs1_NtCsluqq0SikYQ1_6fugrip16collector_phasesNtB5_14CollectorState17request_handshake
FN:879,_RNvMs1_NtCsluqq0SikYQ1_6fugrip16collector_phasesNtB5_14CollectorState17resume_after_fork
FN:931,_RNvMs1_NtCsluqq0SikYQ1_6fugrip16collector_phasesNtB5_14CollectorState17resume_collection
FN:514,_RNvMs1_NtCsluqq0SikYQ1_6fugrip16collector_phasesNtB5_14CollectorState17scan_data_segment
FN:798,_RNvMs1_NtCsluqq0SikYQ1_6fugrip16collector_phasesNtB5_14CollectorState18is_valid_type_info
FN:679,_RNvMs1_NtCsluqq0SikYQ1_6fugrip16collector_phasesNtB5_14CollectorState18mark_thread_locals
FN:576,_RNvMs1_NtCsluqq0SikYQ1_6fugrip16collector_phasesNtB5_14CollectorState18mark_thread_stacks
FN:176,_RNvMs1_NtCsluqq0SikYQ1_6fugrip16collector_phasesNtB5_14CollectorState18request_collection
FN:890,_RNvMs1_NtCsluqq0SikYQ1_6fugrip16collector_phasesNtB5_14CollectorState18request_suspension
FN:406,_RNvMs1_NtCsluqq0SikYQ1_6fugrip16collector_phasesNtB5_14CollectorState18steal_marking_work
FN:423,_RNvMs1_NtCsluqq0SikYQ1_6fugrip16collector_phasesNtB5_14CollectorState19donate_marking_work
FN:746,_RNvMs1_NtCsluqq0SikYQ1_6fugrip16collector_phasesNtB5_14CollectorState19is_valid_gc_pointer
FN:328,_RNvMs1_NtCsluqq0SikYQ1_6fugrip16collector_phasesNtB5_14CollectorState19start_marking_phase
FN:900,_RNvMs1_NtCsluqq0SikYQ1_6fugrip16collector_phasesNtB5_14CollectorState19wait_for_suspension
FN:472,_RNvMs1_NtCsluqq0SikYQ1_6fugrip16collector_phasesNtB5_14CollectorState21acknowledge_handshake
FN:780,_RNvMs1_NtCsluqq0SikYQ1_6fugrip16collector_phasesNtB5_14CollectorState21is_within_heap_bounds
FN:198,_RNvMs1_NtCsluqq0SikYQ1_6fugrip16collector_phasesNtB5_14CollectorState21wait_for_phase_change
FN:465,_RNvMs1_NtCsluqq0SikYQ1_6fugrip16collector_phasesNtB5_14CollectorState22is_handshake_requested
FN:1044,_RNvMs1_NtCsluqq0SikYQ1_6fugrip16collector_phasesNtB5_14CollectorState22is_valid_object_header
FN:585,_RNvMs1_NtCsluqq0SikYQ1_6fugrip16collector_phasesNtB5_14CollectorState22mark_all_thread_stacks
FN:240,_RNvMs1_NtCsluqq0SikYQ1_6fugrip16collector_phasesNtB5_14CollectorState22register_thread_for_gc
FN:217,_RNvMs1_NtCsluqq0SikYQ1_6fugrip16collector_phasesNtB5_14CollectorState22register_worker_thread
FN:941,_RNvMs1_NtCsluqq0SikYQ1_6fugrip16collector_phasesNtB5_14CollectorState23is_suspension_requested
FN:205,_RNvMs1_NtCsluqq0SikYQ1_6fugrip16collector_phasesNtB5_14CollectorState23register_mutator_thread
FN:213,_RNvMs1_NtCsluqq0SikYQ1_6fugrip16collector_phasesNtB5_14CollectorState24get_active_mutator_count
FN:221,_RNvMs1_NtCsluqq0SikYQ1_6fugrip16collector_phasesNtB5_14CollectorState24unregister_worker_thread
FN:853,_RNvMs1_NtCsluqq0SikYQ1_6fugrip16collector_phasesNtB5_14CollectorState25mark_current_thread_stack
FN:209,_RNvMs1_NtCsluqq0SikYQ1_6fugrip16collector_phasesNtB5_14CollectorState25unregister_mutator_thread
FN:267,_RNvMs1_NtCsluqq0SikYQ1_6fugrip16collector_phasesNtB5_14CollectorState25unregister_thread_from_gc
FN:815,_RNvMs1_NtCsluqq0SikYQ1_6fugrip16collector_phasesNtB5_14CollectorState26is_valid_object_in_segment
FN:982,_RNvMs1_NtCsluqq0SikYQ1_6fugrip16collector_phasesNtB5_14CollectorState27sweep_all_segments_parallel
FN:274,_RNvMs1_NtCsluqq0SikYQ1_6fugrip16collector_phasesNtB5_14CollectorState27update_thread_stack_pointer
FN:622,_RNvMs1_NtCsluqq0SikYQ1_6fugrip16collector_phasesNtB5_14CollectorState28mark_registered_thread_roots
FN:235,_RNvMs1_NtCsluqq0SikYQ1_6fugrip16collector_phasesNtB5_14CollectorState29worker_acknowledge_resumption
FN:225,_RNvMs1_NtCsluqq0SikYQ1_6fugrip16collector_phasesNtB5_14CollectorState29worker_acknowledge_suspension
FN:723,_RNvMs1_NtCsluqq0SikYQ1_6fugrip16collector_phasesNtB5_14CollectorState30conservative_scan_memory_range
FN:290,_RNvMs1_NtCsluqq0SikYQ1_6fugrip16collector_phasesNtB5_14CollectorState31get_current_thread_stack_bounds
FN:1170,_RNvMs1_NtCsluqq0SikYQ1_6fugrip16collector_phasesNtB5_14CollectorState34iterate_finalizer_objects_parallel
FN:598,_RNvMs1_NtCsluqq0SikYQ1_6fugrip16collector_phasesNtB5_14CollectorState34mark_current_thread_stack_with_psm
FN:966,_RNvMs1_NtCsluqq0SikYQ1_6fugrip16collector_phasesNtB5_14CollectorState35redirect_pointers_to_free_singleton
FN:192,_RNvMs1_NtCsluqq0SikYQ1_6fugrip16collector_phasesNtB5_14CollectorState9set_phase
FN:127,_RNvMs_NtCsluqq0SikYQ1_6fugrip16collector_phasesNtB4_12MutatorState15check_handshake
FN:92,_RNvMs_NtCsluqq0SikYQ1_6fugrip16collector_phasesNtB4_12MutatorState3new
FN:1235,_RNvNtCsluqq0SikYQ1_6fugrip16collector_phases12gc_safe_fork
FN:86,_RNvXNtCsluqq0SikYQ1_6fugrip16collector_phasesNtB2_12MutatorStateNtNtCs6SNw0SRvItZ_4core7default7Default7default
FN:143,_RNvXs0_NtCsluqq0SikYQ1_6fugrip16collector_phasesNtB5_14CollectorStateNtNtCs6SNw0SRvItZ_4core7default7Default7default
FN:101,_RINvMs_NtCs8zwcuAlrZd5_6fugrip16collector_phasesNtB5_12MutatorState12try_allocateNtCsalr00eiz6sG_21memory_coverage_tests8TestItemEB1j_
FNDA:2,_RINvMs_NtCs8zwcuAlrZd5_6fugrip16collector_phasesNtB5_12MutatorState12try_allocatelECsyXbmZjEexw_21collector_phase_tests
FNDA:0,_RINvMs1_NtCs8zwcuAlrZd5_6fugrip16collector_phasesNtB6_14CollectorState21scan_all_live_objectsNCNvB2_35redirect_pointers_to_free_singleton0EB8_
FNDA:0,_RINvMs1_NtCs8zwcuAlrZd5_6fugrip16collector_phasesNtB6_14CollectorState29scan_segment_for_live_objectsNCNvB2_35redirect_pointers_to_free_singleton0EB8_
FNDA:0,_RNCNvMs1_NtCs8zwcuAlrZd5_6fugrip16collector_phasesNtB7_14CollectorState14reviving_phase0B9_
FNDA:0,_RNCNvMs1_NtCs8zwcuAlrZd5_6fugrip16collector_phasesNtB7_14CollectorState15remarking_phase0B9_
FNDA:0,_RNCNvMs1_NtCs8zwcuAlrZd5_6fugrip16collector_phasesNtB7_14CollectorState16worker_suspended0B9_
FNDA:0,_RNCNvMs1_NtCs8zwcuAlrZd5_6fugrip16collector_phasesNtB7_14CollectorState17request_handshake0B9_
FNDA:0,_RNCNvMs1_NtCs8zwcuAlrZd5_6fugrip16collector_phasesNtB7_14CollectorState19start_marking_phase0B9_
FNDA:0,_RNCNvMs1_NtCs8zwcuAlrZd5_6fugrip16collector_phasesNtB7_14CollectorState19wait_for_suspension0B9_
FNDA:0,_RNCNvMs1_NtCs8zwcuAlrZd5_6fugrip16collector_phasesNtB7_14CollectorState21wait_for_phase_change0B9_
FNDA:0,_RNCNvMs1_NtCs8zwcuAlrZd5_6fugrip16collector_phasesNtB7_14CollectorState22register_thread_for_gc0B9_
FNDA:2,_RNCNvMs1_NtCs8zwcuAlrZd5_6fugrip16collector_phasesNtB7_14CollectorState25unregister_thread_from_gc0B9_
FNDA:0,_RNCNvMs1_NtCs8zwcuAlrZd5_6fugrip16collector_phasesNtB7_14CollectorState27sweep_all_segments_parallel0B9_
FNDA:0,_RNCNvMs1_NtCs8zwcuAlrZd5_6fugrip16collector_phasesNtB7_14CollectorState27update_thread_stack_pointer0B9_
FNDA:0,_RNCNvMs1_NtCs8zwcuAlrZd5_6fugrip16collector_phasesNtB7_14CollectorState28mark_registered_thread_roots0B9_
FNDA:0,_RNCNvMs1_NtCs8zwcuAlrZd5_6fugrip16collector_phasesNtB7_14CollectorState34iterate_finalizer_objects_parallel0B9_
FNDA:0,_RNCNvMs1_NtCs8zwcuAlrZd5_6fugrip16collector_phasesNtB7_14CollectorState34iterate_finalizer_objects_parallels0_0B9_
FNDA:0,_RNCNvMs1_NtCs8zwcuAlrZd5_6fugrip16collector_phasesNtB7_14CollectorState34iterate_finalizer_objects_parallels_0B9_
FNDA:0,_RNCNvMs1_NtCs8zwcuAlrZd5_6fugrip16collector_phasesNtB7_14CollectorState35redirect_pointers_to_free_singleton0B9_
FNDA:2,_RNvMs1_NtCs8zwcuAlrZd5_6fugrip16collector_phasesNtB5_14CollectorState10is_marking
FNDA:0,_RNvMs1_NtCs8zwcuAlrZd5_6fugrip16collector_phasesNtB5_14CollectorState13sweep_segment
FNDA:0,_RNvMs1_NtCs8zwcuAlrZd5_6fugrip16collector_phasesNtB5_14CollectorState14marking_worker
FNDA:0,_RNvMs1_NtCs8zwcuAlrZd5_6fugrip16collector_phasesNtB5_14CollectorState14reviving_phase
FNDA:0,_RNvMs1_NtCs8zwcuAlrZd5_6fugrip16collector_phasesNtB5_14CollectorState14sweeping_phase
FNDA:0,_RNvMs1_NtCs8zwcuAlrZd5_6fugrip16collector_phasesNtB5_14CollectorState15remarking_phase
FNDA:0,_RNvMs1_NtCs8zwcuAlrZd5_6fugrip16collector_phasesNtB5_14CollectorState16scan_bss_segment
FNDA:0,_RNvMs1_NtCs8zwcuAlrZd5_6fugrip16collector_phasesNtB5_14CollectorState16suspend_for_fork
FNDA:0,_RNvMs1_NtCs8zwcuAlrZd5_6fugrip16collector_phasesNtB5_14CollectorState16worker_suspended
FNDA:0,_RNvMs1_NtCs8zwcuAlrZd5_6fugrip16collector_phasesNtB5_14CollectorState17mark_global_roots
FNDA:0,_RNvMs1_NtCs8zwcuAlrZd5_6fugrip16collector_phasesNtB5_14CollectorState17mark_static_roots
FNDA:0,_RNvMs1_NtCs8zwcuAlrZd5_6fugrip16collector_phasesNtB5_14CollectorState17mark_system_roots
FNDA:0,_RNvMs1_NtCs8zwcuAlrZd5_6fugrip16collector_phasesNtB5_14CollectorState17request_handshake
FNDA:0,_RNvMs1_NtCs8zwcuAlrZd5_6fugrip16collector_phasesNtB5_14CollectorState17resume_after_fork
FNDA:0,_RNvMs1_NtCs8zwcuAlrZd5_6fugrip16collector_phasesNtB5_14CollectorState17resume_collection
FNDA:0,_RNvMs1_NtCs8zwcuAlrZd5_6fugrip16collector_phasesNtB5_14CollectorState17scan_data_segment
FNDA:0,_RNvMs1_NtCs8zwcuAlrZd5_6fugrip16collector_phasesNtB5_14CollectorState18is_valid_type_info
FNDA:0,_RNvMs1_NtCs8zwcuAlrZd5_6fugrip16collector_phasesNtB5_14CollectorState18mark_thread_locals
FNDA:0,_RNvMs1_NtCs8zwcuAlrZd5_6fugrip16collector_phasesNtB5_14CollectorState18mark_thread_stacks
FNDA:0,_RNvMs1_NtCs8zwcuAlrZd5_6fugrip16collector_phasesNtB5_14CollectorState18request_collection
FNDA:0,_RNvMs1_NtCs8zwcuAlrZd5_6fugrip16collector_phasesNtB5_14CollectorState18request_suspension
FNDA:2,_RNvMs1_NtCs8zwcuAlrZd5_6fugrip16collector_phasesNtB5_14CollectorState18steal_marking_work
FNDA:2,_RNvMs1_NtCs8zwcuAlrZd5_6fugrip16collector_phasesNtB5_14CollectorState19donate_marking_work
FNDA:0,_RNvMs1_NtCs8zwcuAlrZd5_6fugrip16collector_phasesNtB5_14CollectorState19is_valid_gc_pointer
FNDA:0,_RNvMs1_NtCs8zwcuAlrZd5_6fugrip16collector_phasesNtB5_14CollectorState19start_marking_phase
FNDA:0,_RNvMs1_NtCs8zwcuAlrZd5_6fugrip16collector_phasesNtB5_14CollectorState19wait_for_suspension
FNDA:0,_RNvMs1_NtCs8zwcuAlrZd5_6fugrip16collector_phasesNtB5_14CollectorState21acknowledge_handshake
FNDA:0,_RNvMs1_NtCs8zwcuAlrZd5_6fugrip16collector_phasesNtB5_14CollectorState21is_within_heap_bounds
FNDA:0,_RNvMs1_NtCs8zwcuAlrZd5_6fugrip16collector_phasesNtB5_14CollectorState21wait_for_phase_change
FNDA:0,_RNvMs1_NtCs8zwcuAlrZd5_6fugrip16collector_phasesNtB5_14CollectorState22is_handshake_requested
FNDA:0,_RNvMs1_NtCs8zwcuAlrZd5_6fugrip16collector_phasesNtB5_14CollectorState22is_valid_object_header
FNDA:0,_RNvMs1_NtCs8zwcuAlrZd5_6fugrip16collector_phasesNtB5_14CollectorState22mark_all_thread_stacks
FNDA:2,_RNvMs1_NtCs8zwcuAlrZd5_6fugrip16collector_phasesNtB5_14CollectorState22register_thread_for_gc
FNDA:0,_RNvMs1_NtCs8zwcuAlrZd5_6fugrip16collector_phasesNtB5_14CollectorState22register_worker_thread
FNDA:0,_RNvMs1_NtCs8zwcuAlrZd5_6fugrip16collector_phasesNtB5_14CollectorState23is_suspension_requested
FNDA:2,_RNvMs1_NtCs8zwcuAlrZd5_6fugrip16collector_phasesNtB5_14CollectorState23register_mutator_thread
FNDA:2,_RNvMs1_NtCs8zwcuAlrZd5_6fugrip16collector_phasesNtB5_14CollectorState24get_active_mutator_count
FNDA:0,_RNvMs1_NtCs8zwcuAlrZd5_6fugrip16collector_phasesNtB5_14CollectorState24unregister_worker_thread
FNDA:0,_RNvMs1_NtCs8zwcuAlrZd5_6fugrip16collector_phasesNtB5_14CollectorState25mark_current_thread_stack
FNDA:2,_RNvMs1_NtCs8zwcuAlrZd5_6fugrip16collector_phasesNtB5_14CollectorState25unregister_mutator_thread
FNDA:2,_RNvMs1_NtCs8zwcuAlrZd5_6fugrip16collector_phasesNtB5_14CollectorState25unregister_thread_from_gc
FNDA:0,_RNvMs1_NtCs8zwcuAlrZd5_6fugrip16collector_phasesNtB5_14CollectorState26is_valid_object_in_segment
FNDA:0,_RNvMs1_NtCs8zwcuAlrZd5_6fugrip16collector_phasesNtB5_14CollectorState27sweep_all_segments_parallel
FNDA:0,_RNvMs1_NtCs8zwcuAlrZd5_6fugrip16collector_phasesNtB5_14CollectorState27update_thread_stack_pointer
FNDA:0,_RNvMs1_NtCs8zwcuAlrZd5_6fugrip16collector_phasesNtB5_14CollectorState28mark_registered_thread_roots
FNDA:0,_RNvMs1_NtCs8zwcuAlrZd5_6fugrip16collector_phasesNtB5_14CollectorState29worker_acknowledge_resumption
FNDA:0,_RNvMs1_NtCs8zwcuAlrZd5_6fugrip16collector_phasesNtB5_14CollectorState29worker_acknowledge_suspension
FNDA:0,_RNvMs1_NtCs8zwcuAlrZd5_6fugrip16collector_phasesNtB5_14CollectorState30conservative_scan_memory_range
FNDA:0,_RNvMs1_NtCs8zwcuAlrZd5_6fugrip16collector_phasesNtB5_14CollectorState31get_current_thread_stack_bounds
FNDA:0,_RNvMs1_NtCs8zwcuAlrZd5_6fugrip16collector_phasesNtB5_14CollectorState34iterate_finalizer_objects_parallel
FNDA:0,_RNvMs1_NtCs8zwcuAlrZd5_6fugrip16collector_phasesNtB5_14CollectorState34mark_current_thread_stack_with_psm
FNDA:0,_RNvMs1_NtCs8zwcuAlrZd5_6fugrip16collector_phasesNtB5_14CollectorState35redirect_pointers_to_free_singleton
FNDA:4,_RNvMs1_NtCs8zwcuAlrZd5_6fugrip16collector_phasesNtB5_14CollectorState3new
FNDA:2,_RNvMs1_NtCs8zwcuAlrZd5_6fugrip16collector_phasesNtB5_14CollectorState9set_phase
FNDA:0,_RNvMs_NtCs8zwcuAlrZd5_6fugrip16collector_phasesNtB4_12MutatorState15check_handshake
FNDA:2,_RNvMs_NtCs8zwcuAlrZd5_6fugrip16collector_phasesNtB4_12MutatorState3new
FNDA:0,_RNvNtCs8zwcuAlrZd5_6fugrip16collector_phases12gc_safe_fork
FNDA:0,_RNvXNtCs8zwcuAlrZd5_6fugrip16collector_phasesNtB2_12MutatorStateNtNtCs6SNw0SRvItZ_4core7default7Default7default
FNDA:0,_RNvXs0_NtCs8zwcuAlrZd5_6fugrip16collector_phasesNtB5_14CollectorStateNtNtCs6SNw0SRvItZ_4core7default7Default7default
FNDA:0,_RINvMs_NtCs8zwcuAlrZd5_6fugrip16collector_phasesNtB5_12MutatorState12try_allocatelECs3VmZS5N4MlB_36collector_phases_comprehensive_tests
FNDA:0,_RINvMs_NtCs8zwcuAlrZd5_6fugrip16collector_phasesNtB5_12MutatorState12try_allocateAhj400_ECsiiqH71lh0E3_31collector_phases_expanded_tests
FNDA:0,_RINvMs_NtCs8zwcuAlrZd5_6fugrip16collector_phasesNtB5_12MutatorState12try_allocateINtNtCshDtJu3Ru83O_5alloc3vec3VechEECsiiqH71lh0E3_31collector_phases_expanded_tests
FNDA:0,_RINvMs_NtCs8zwcuAlrZd5_6fugrip16collector_phasesNtB5_12MutatorState12try_allocateNtNtCshDtJu3Ru83O_5alloc6string6StringECsiiqH71lh0E3_31collector_phases_expanded_tests
FNDA:0,_RINvMs_NtCs8zwcuAlrZd5_6fugrip16collector_phasesNtB5_12MutatorState12try_allocatehECsiiqH71lh0E3_31collector_phases_expanded_tests
FNDA:0,_RINvMs_NtCs8zwcuAlrZd5_6fugrip16collector_phasesNtB5_12MutatorState12try_allocatelECsiiqH71lh0E3_31collector_phases_expanded_tests
FNDA:0,_RNvMs1_NtCsluqq0SikYQ1_6fugrip16collector_phasesNtB5_14CollectorState3new
FNDA:0,_RINvMs1_NtCsluqq0SikYQ1_6fugrip16collector_phasesNtB6_14CollectorState21scan_all_live_objectspEB8_
FNDA:0,_RINvMs1_NtCsluqq0SikYQ1_6fugrip16collector_phasesNtB6_14CollectorState29scan_segment_for_live_objectspEB8_
FNDA:0,_RINvMs_NtCsluqq0SikYQ1_6fugrip16collector_phasesNtB5_12MutatorState12try_allocatepEB7_
FNDA:0,_RNCNvMs1_NtCsluqq0SikYQ1_6fugrip16collector_phasesNtB7_14CollectorState14reviving_phase0B9_
FNDA:0,_RNCNvMs1_NtCsluqq0SikYQ1_6fugrip16collector_phasesNtB7_14CollectorState15remarking_phase0B9_
FNDA:0,_RNCNvMs1_NtCsluqq0SikYQ1_6fugrip16collector_phasesNtB7_14CollectorState16worker_suspended0B9_
FNDA:0,_RNCNvMs1_NtCsluqq0SikYQ1_6fugrip16collector_phasesNtB7_14CollectorState17request_handshake0B9_
FNDA:0,_RNCNvMs1_NtCsluqq0SikYQ1_6fugrip16collector_phasesNtB7_14CollectorState19start_marking_phase0B9_
FNDA:0,_RNCNvMs1_NtCsluqq0SikYQ1_6fugrip16collector_phasesNtB7_14CollectorState19wait_for_suspension0B9_
FNDA:0,_RNCNvMs1_NtCsluqq0SikYQ1_6fugrip16collector_phasesNtB7_14CollectorState21wait_for_phase_change0B9_
FNDA:0,_RNCNvMs1_NtCsluqq0SikYQ1_6fugrip16collector_phasesNtB7_14CollectorState22register_thread_for_gc0B9_
FNDA:0,_RNCNvMs1_NtCsluqq0SikYQ1_6fugrip16collector_phasesNtB7_14CollectorState25unregister_thread_from_gc0B9_
FNDA:0,_RNCNvMs1_NtCsluqq0SikYQ1_6fugrip16collector_phasesNtB7_14CollectorState27sweep_all_segments_parallel0B9_
FNDA:0,_RNCNvMs1_NtCsluqq0SikYQ1_6fugrip16collector_phasesNtB7_14CollectorState27update_thread_stack_pointer0B9_
FNDA:0,_RNCNvMs1_NtCsluqq0SikYQ1_6fugrip16collector_phasesNtB7_14CollectorState28mark_registered_thread_roots0B9_
FNDA:0,_RNCNvMs1_NtCsluqq0SikYQ1_6fugrip16collector_phasesNtB7_14CollectorState34iterate_finalizer_objects_parallel0B9_
FNDA:0,_RNCNvMs1_NtCsluqq0SikYQ1_6fugrip16collector_phasesNtB7_14CollectorState34iterate_finalizer_objects_parallels0_0B9_
FNDA:0,_RNCNvMs1_NtCsluqq0SikYQ1_6fugrip16collector_phasesNtB7_14CollectorState34iterate_finalizer_objects_parallels_0B9_
FNDA:0,_RNCNvMs1_NtCsluqq0SikYQ1_6fugrip16collector_phasesNtB7_14CollectorState35redirect_pointers_to_free_singleton0B9_
FNDA:0,_RNvMs1_NtCsluqq0SikYQ1_6fugrip16collector_phasesNtB5_14CollectorState10is_marking
FNDA:0,_RNvMs1_NtCsluqq0SikYQ1_6fugrip16collector_phasesNtB5_14CollectorState13sweep_segment
FNDA:0,_RNvMs1_NtCsluqq0SikYQ1_6fugrip16collector_phasesNtB5_14CollectorState14marking_worker
FNDA:0,_RNvMs1_NtCsluqq0SikYQ1_6fugrip16collector_phasesNtB5_14CollectorState14reviving_phase
FNDA:0,_RNvMs1_NtCsluqq0SikYQ1_6fugrip16collector_phasesNtB5_14CollectorState14sweeping_phase
FNDA:0,_RNvMs1_NtCsluqq0SikYQ1_6fugrip16collector_phasesNtB5_14CollectorState15remarking_phase
FNDA:0,_RNvMs1_NtCsluqq0SikYQ1_6fugrip16collector_phasesNtB5_14CollectorState16scan_bss_segment
FNDA:0,_RNvMs1_NtCsluqq0SikYQ1_6fugrip16collector_phasesNtB5_14CollectorState16suspend_for_fork
FNDA:0,_RNvMs1_NtCsluqq0SikYQ1_6fugrip16collector_phasesNtB5_14CollectorState16worker_suspended
FNDA:0,_RNvMs1_NtCsluqq0SikYQ1_6fugrip16collector_phasesNtB5_14CollectorState17mark_global_roots
FNDA:0,_RNvMs1_NtCsluqq0SikYQ1_6fugrip16collector_phasesNtB5_14CollectorState17mark_static_roots
FNDA:0,_RNvMs1_NtCsluqq0SikYQ1_6fugrip16collector_phasesNtB5_14CollectorState17mark_system_roots
FNDA:0,_RNvMs1_NtCsluqq0SikYQ1_6fugrip16collector_phasesNtB5_14CollectorState17request_handshake
FNDA:0,_RNvMs1_NtCsluqq0SikYQ1_6fugrip16collector_phasesNtB5_14CollectorState17resume_after_fork
FNDA:0,_RNvMs1_NtCsluqq0SikYQ1_6fugrip16collector_phasesNtB5_14CollectorState17resume_collection
FNDA:0,_RNvMs1_NtCsluqq0SikYQ1_6fugrip16collector_phasesNtB5_14CollectorState17scan_data_segment
FNDA:0,_RNvMs1_NtCsluqq0SikYQ1_6fugrip16collector_phasesNtB5_14CollectorState18is_valid_type_info
FNDA:0,_RNvMs1_NtCsluqq0SikYQ1_6fugrip16collector_phasesNtB5_14CollectorState18mark_thread_locals
FNDA:0,_RNvMs1_NtCsluqq0SikYQ1_6fugrip16collector_phasesNtB5_14CollectorState18mark_thread_stacks
FNDA:0,_RNvMs1_NtCsluqq0SikYQ1_6fugrip16collector_phasesNtB5_14CollectorState18request_collection
FNDA:0,_RNvMs1_NtCsluqq0SikYQ1_6fugrip16collector_phasesNtB5_14CollectorState18request_suspension
FNDA:0,_RNvMs1_NtCsluqq0SikYQ1_6fugrip16collector_phasesNtB5_14CollectorState18steal_marking_work
FNDA:0,_RNvMs1_NtCsluqq0SikYQ1_6fugrip16collector_phasesNtB5_14CollectorState19donate_marking_work
FNDA:0,_RNvMs1_NtCsluqq0SikYQ1_6fugrip16collector_phasesNtB5_14CollectorState19is_valid_gc_pointer
FNDA:0,_RNvMs1_NtCsluqq0SikYQ1_6fugrip16collector_phasesNtB5_14CollectorState19start_marking_phase
FNDA:0,_RNvMs1_NtCsluqq0SikYQ1_6fugrip16collector_phasesNtB5_14CollectorState19wait_for_suspension
FNDA:0,_RNvMs1_NtCsluqq0SikYQ1_6fugrip16collector_phasesNtB5_14CollectorState21acknowledge_handshake
FNDA:0,_RNvMs1_NtCsluqq0SikYQ1_6fugrip16collector_phasesNtB5_14CollectorState21is_within_heap_bounds
FNDA:0,_RNvMs1_NtCsluqq0SikYQ1_6fugrip16collector_phasesNtB5_14CollectorState21wait_for_phase_change
FNDA:0,_RNvMs1_NtCsluqq0SikYQ1_6fugrip16collector_phasesNtB5_14CollectorState22is_handshake_requested
FNDA:0,_RNvMs1_NtCsluqq0SikYQ1_6fugrip16collector_phasesNtB5_14CollectorState22is_valid_object_header
FNDA:0,_RNvMs1_NtCsluqq0SikYQ1_6fugrip16collector_phasesNtB5_14CollectorState22mark_all_thread_stacks
FNDA:0,_RNvMs1_NtCsluqq0SikYQ1_6fugrip16collector_phasesNtB5_14CollectorState22register_thread_for_gc
FNDA:0,_RNvMs1_NtCsluqq0SikYQ1_6fugrip16collector_phasesNtB5_14CollectorState22register_worker_thread
FNDA:0,_RNvMs1_NtCsluqq0SikYQ1_6fugrip16collector_phasesNtB5_14CollectorState23is_suspension_requested
FNDA:0,_RNvMs1_NtCsluqq0SikYQ1_6fugrip16collector_phasesNtB5_14CollectorState23register_mutator_thread
FNDA:0,_RNvMs1_NtCsluqq0SikYQ1_6fugrip16collector_phasesNtB5_14CollectorState24get_active_mutator_count
FNDA:0,_RNvMs1_NtCsluqq0SikYQ1_6fugrip16collector_phasesNtB5_14CollectorState24unregister_worker_thread
FNDA:0,_RNvMs1_NtCsluqq0SikYQ1_6fugrip16collector_phasesNtB5_14CollectorState25mark_current_thread_stack
FNDA:0,_RNvMs1_NtCsluqq0SikYQ1_6fugrip16collector_phasesNtB5_14CollectorState25unregister_mutator_thread
FNDA:0,_RNvMs1_NtCsluqq0SikYQ1_6fugrip16collector_phasesNtB5_14CollectorState25unregister_thread_from_gc
FNDA:0,_RNvMs1_NtCsluqq0SikYQ1_6fugrip16collector_phasesNtB5_14CollectorState26is_valid_object_in_segment
FNDA:0,_RNvMs1_NtCsluqq0SikYQ1_6fugrip16collector_phasesNtB5_14CollectorState27sweep_all_segments_parallel
FNDA:0,_RNvMs1_NtCsluqq0SikYQ1_6fugrip16collector_phasesNtB5_14CollectorState27update_thread_stack_pointer
FNDA:0,_RNvMs1_NtCsluqq0SikYQ1_6fugrip16collector_phasesNtB5_14CollectorState28mark_registered_thread_roots
FNDA:0,_RNvMs1_NtCsluqq0SikYQ1_6fugrip16collector_phasesNtB5_14CollectorState29worker_acknowledge_resumption
FNDA:0,_RNvMs1_NtCsluqq0SikYQ1_6fugrip16collector_phasesNtB5_14CollectorState29worker_acknowledge_suspension
FNDA:0,_RNvMs1_NtCsluqq0SikYQ1_6fugrip16collector_phasesNtB5_14CollectorState30conservative_scan_memory_range
FNDA:0,_RNvMs1_NtCsluqq0SikYQ1_6fugrip16collector_phasesNtB5_14CollectorState31get_current_thread_stack_bounds
FNDA:0,_RNvMs1_NtCsluqq0SikYQ1_6fugrip16collector_phasesNtB5_14CollectorState34iterate_finalizer_objects_parallel
FNDA:0,_RNvMs1_NtCsluqq0SikYQ1_6fugrip16collector_phasesNtB5_14CollectorState34mark_current_thread_stack_with_psm
FNDA:0,_RNvMs1_NtCsluqq0SikYQ1_6fugrip16collector_phasesNtB5_14CollectorState35redirect_pointers_to_free_singleton
FNDA:0,_RNvMs1_NtCsluqq0SikYQ1_6fugrip16collector_phasesNtB5_14CollectorState9set_phase
FNDA:0,_RNvMs_NtCsluqq0SikYQ1_6fugrip16collector_phasesNtB4_12MutatorState15check_handshake
FNDA:0,_RNvMs_NtCsluqq0SikYQ1_6fugrip16collector_phasesNtB4_12MutatorState3new
FNDA:0,_RNvNtCsluqq0SikYQ1_6fugrip16collector_phases12gc_safe_fork
FNDA:0,_RNvXNtCsluqq0SikYQ1_6fugrip16collector_phasesNtB2_12MutatorStateNtNtCs6SNw0SRvItZ_4core7default7Default7default
FNDA:0,_RNvXs0_NtCsluqq0SikYQ1_6fugrip16collector_phasesNtB5_14CollectorStateNtNtCs6SNw0SRvItZ_4core7default7Default7default
FNDA:0,_RINvMs_NtCs8zwcuAlrZd5_6fugrip16collector_phasesNtB5_12MutatorState12try_allocateNtCsalr00eiz6sG_21memory_coverage_tests8TestItemEB1j_
FNF:78
FNH:13
DA:86,0
DA:87,0
DA:88,0
DA:92,2
DA:93,2
DA:94,2
DA:95,2
DA:96,2
DA:97,2
DA:98,2
DA:99,2
DA:101,2
DA:102,2
DA:103,2
DA:106,2
DA:107,2
DA:108,0
DA:110,0
DA:111,0
DA:112,0
DA:114,0
DA:116,0
DA:117,0
DA:120,0
DA:122,2
DA:127,0
DA:128,0
DA:129,0
DA:130,0
DA:131,0
DA:132,0
DA:133,0
DA:134,0
DA:135,0
DA:136,0
DA:137,0
DA:138,0
DA:139,0
DA:143,0
DA:144,0
DA:145,0
DA:149,4
DA:150,4
DA:151,4
DA:152,4
DA:153,4
DA:154,4
DA:155,4
DA:156,4
DA:157,4
DA:158,4
DA:159,4
DA:160,4
DA:161,4
DA:162,4
DA:163,4
DA:164,4
DA:165,4
DA:166,4
DA:167,4
DA:168,4
DA:169,4
DA:170,4
DA:172,2
DA:173,2
DA:174,2
DA:176,0
DA:178,0
DA:179,0
DA:180,0
DA:181,0
DA:182,0
DA:186,0
DA:187,0
DA:188,0
DA:189,0
DA:190,0
DA:192,2
DA:193,2
DA:194,2
DA:195,2
DA:196,2
DA:198,0
DA:199,0
DA:200,0
DA:201,0
DA:202,0
DA:203,0
DA:205,2
DA:206,2
DA:207,2
DA:209,2
DA:210,2
DA:211,2
DA:213,2
DA:214,2
DA:215,2
DA:217,0
DA:218,0
DA:219,0
DA:221,0
DA:222,0
DA:223,0
DA:225,0
DA:226,0
DA:227,0
DA:230,0
DA:231,0
DA:232,0
DA:233,0
DA:235,0
DA:236,0
DA:237,0
DA:240,2
DA:241,2
DA:244,2
DA:246,2
DA:247,2
DA:248,2
DA:249,2
DA:250,2
DA:251,2
DA:252,2
DA:253,2
DA:255,2
DA:258,2
DA:259,0
DA:260,2
DA:262,2
DA:263,2
DA:264,2
DA:267,2
DA:268,2
DA:269,2
DA:270,2
DA:271,2
DA:274,0
DA:275,0
DA:276,0
DA:278,0
DA:279,0
DA:280,0
DA:281,0
DA:282,0
DA:283,0
DA:284,0
DA:285,0
DA:286,0
DA:287,0
DA:290,0
DA:299,0
DA:300,0
DA:301,0
DA:303,0
DA:304,0
DA:305,0
DA:307,0
DA:308,0
DA:309,0
DA:310,0
DA:325,0
DA:326,0
DA:328,0
DA:329,0
DA:330,0
DA:331,0
DA:334,0
DA:335,0
DA:338,0
DA:339,0
DA:343,0
DA:345,0
DA:346,0
DA:347,0
DA:348,0
DA:349,0
DA:353,0
DA:354,0
DA:356,0
DA:357,0
DA:359,0
DA:361,0
DA:363,0
DA:364,0
DA:365,0
DA:368,0
DA:369,0
DA:370,0
DA:371,0
DA:373,0
DA:374,0
DA:376,0
DA:379,0
DA:381,0
DA:382,0
DA:383,0
DA:384,0
DA:385,0
DA:386,0
DA:387,0
DA:388,0
DA:392,0
DA:393,0
DA:394,0
DA:399,0
DA:400,0
DA:401,0
DA:402,0
DA:406,2
DA:409,2
DA:410,2
DA:411,0
DA:412,2
DA:415,2
DA:417,2
DA:418,2
DA:419,2
DA:423,2
DA:426,2
DA:427,0
DA:428,2
DA:431,2
DA:432,2
DA:434,2
DA:435,2
DA:436,2
DA:441,0
DA:443,0
DA:446,0
DA:447,0
DA:449,0
DA:450,0
DA:451,0
DA:452,0
DA:453,0
DA:454,0
DA:456,0
DA:459,0
DA:460,0
DA:465,0
DA:466,0
DA:467,0
DA:472,0
DA:474,0
DA:475,0
DA:476,0
DA:477,0
DA:480,0
DA:481,0
DA:482,0
DA:483,0
DA:487,0
DA:488,0
DA:491,0
DA:494,0
DA:497,0
DA:500,0
DA:501,0
DA:505,0
DA:508,0
DA:509,0
DA:510,0
DA:511,0
DA:512,0
DA:514,0
DA:523,0
DA:524,0
DA:526,0
DA:527,0
DA:528,0
DA:529,0
DA:530,0
DA:545,0
DA:547,0
DA:556,0
DA:557,0
DA:559,0
DA:560,0
DA:561,0
DA:562,0
DA:563,0
DA:572,0
DA:576,0
DA:579,0
DA:582,0
DA:583,0
DA:585,0
DA:590,0
DA:594,0
DA:595,0
DA:598,0
DA:600,0
DA:603,0
DA:604,0
DA:606,0
DA:608,0
DA:610,0
DA:612,0
DA:615,0
DA:616,0
DA:617,0
DA:618,0
DA:619,0
DA:622,0
DA:624,0
DA:625,0
DA:627,0
DA:628,0
DA:629,0
DA:631,0
DA:632,0
DA:635,0
DA:636,0
DA:637,0
DA:639,0
DA:640,0
DA:641,0
DA:644,0
DA:645,0
DA:647,0
DA:649,0
DA:653,0
DA:654,0
DA:655,0
DA:656,0
DA:657,0
DA:658,0
DA:659,0
DA:660,0
DA:663,0
DA:665,0
DA:672,0
DA:673,0
DA:674,0
DA:675,0
DA:676,0
DA:679,0
DA:690,0
DA:693,0
DA:703,0
DA:706,0
DA:707,0
DA:709,0
DA:711,0
DA:712,0
DA:713,0
DA:714,0
DA:715,0
DA:718,0
DA:723,0
DA:724,0
DA:725,0
DA:726,0
DA:727,0
DA:728,0
DA:729,0
DA:730,0
DA:732,0
DA:733,0
DA:736,0
DA:737,0
DA:738,0
DA:740,0
DA:742,0
DA:746,0
DA:748,0
DA:749,0
DA:750,0
DA:753,0
DA:754,0
DA:755,0
DA:758,0
DA:759,0
DA:760,0
DA:764,0
DA:765,0
DA:766,0
DA:767,0
DA:770,0
DA:771,0
DA:772,0
DA:773,0
DA:776,0
DA:778,0
DA:780,0
DA:784,0
DA:786,0
DA:787,0
DA:788,0
DA:790,0
DA:791,0
DA:792,0
DA:795,0
DA:796,0
DA:798,0
DA:803,0
DA:804,0
DA:805,0
DA:812,0
DA:813,0
DA:815,0
DA:818,0
DA:819,0
DA:821,0
DA:822,0
DA:823,0
DA:826,0
DA:828,0
DA:829,0
DA:830,0
DA:833,0
DA:834,0
DA:837,0
DA:839,0
DA:842,0
DA:843,0
DA:844,0
DA:845,0
DA:848,0
DA:849,0
DA:853,0
DA:855,0
DA:856,0
DA:857,0
DA:859,0
DA:860,0
DA:861,0
DA:862,0
DA:863,0
DA:864,0
DA:867,0
DA:868,0
DA:870,0
DA:871,0
DA:872,0
DA:873,0
DA:874,0
DA:875,0
DA:876,0
DA:877,0
DA:879,0
DA:880,0
DA:882,0
DA:883,0
DA:884,0
DA:885,0
DA:886,0
DA:890,0
DA:892,0
DA:895,0
DA:896,0
DA:900,0
DA:902,0
DA:905,0
DA:907,0
DA:908,0
DA:911,0
DA:912,0
DA:913,0
DA:914,0
DA:919,0
DA:920,0
DA:921,0
DA:922,0
DA:923,0
DA:924,0
DA:925,0
DA:926,0
DA:927,0
DA:931,0
DA:933,0
DA:936,0
DA:937,0
DA:941,0
DA:942,0
DA:943,0
DA:946,0
DA:947,0
DA:948,0
DA:950,0
DA:953,0
DA:954,0
DA:966,0
DA:967,0
DA:968,0
DA:969,0
DA:970,0
DA:975,0
DA:976,0
DA:977,0
DA:978,0
DA:979,0
DA:982,0
DA:987,0
DA:991,0
DA:992,0
DA:993,0
DA:994,0
DA:995,0
DA:998,0
DA:999,0
DA:1000,0
DA:1002,0
DA:1003,0
DA:1007,0
DA:1008,0
DA:1010,0
DA:1011,0
DA:1012,0
DA:1013,0
DA:1014,0
DA:1017,0
DA:1020,0
DA:1023,0
DA:1024,0
DA:1025,0
DA:1026,0
DA:1027,0
DA:1028,0
DA:1029,0
DA:1032,0
DA:1033,0
DA:1034,0
DA:1035,0
DA:1036,0
DA:1037,0
DA:1040,0
DA:1044,0
DA:1046,0
DA:1047,0
DA:1048,0
DA:1051,0
DA:1052,0
DA:1053,0
DA:1057,0
DA:1058,0
DA:1061,0
DA:1062,0
DA:1063,0
DA:1066,0
DA:1067,0
DA:1072,0
DA:1073,0
DA:1074,0
DA:1079,0
DA:1082,0
DA:1083,0
DA:1084,0
DA:1085,0
DA:1088,0
DA:1089,0
DA:1090,0
DA:1092,0
DA:1093,0
DA:1095,0
DA:1096,0
DA:1100,0
DA:1102,0
DA:1103,0
DA:1104,0
DA:1105,0
DA:1108,0
DA:1109,0
DA:1110,0
DA:1111,0
DA:1112,0
DA:1113,0
DA:1116,0
DA:1119,0
DA:1120,0
DA:1121,0
DA:1126,0
DA:1127,0
DA:1130,0
DA:1133,0
DA:1134,0
DA:1135,0
DA:1136,0
DA:1137,0
DA:1138,0
DA:1139,0
DA:1141,0
DA:1144,0
DA:1145,0
DA:1147,0
DA:1148,0
DA:1149,0
DA:1153,0
DA:1155,0
DA:1156,0
DA:1157,0
DA:1158,0
DA:1159,0
DA:1163,0
DA:1164,0
DA:1165,0
DA:1167,0
DA:1170,0
DA:1171,0
DA:1172,0
DA:1173,0
DA:1174,0
DA:1177,0
DA:1178,0
DA:1181,0
DA:1182,0
DA:1184,0
DA:1187,0
DA:1188,0
DA:1189,0
DA:1190,0
DA:1191,0
DA:1192,0
DA:1193,0
DA:1194,0
DA:1196,0
DA:1199,0
DA:1200,0
DA:1201,0
DA:1202,0
DA:1203,0
DA:1204,0
DA:1235,0
DA:1238,0
DA:1240,0
DA:1242,0
DA:1244,0
DA:1245,0
DA:1247,0
DA:1249,0
BRF:0
BRH:0
LF:643
LH:92
end_of_record
SF:/home/martin/git/fugrip/src/interfaces.rs
FN:52,_RINvYpNtNtCsluqq0SikYQ1_6fugrip10interfaces14AllocatorTrait8allocatepEB8_
FN:52,_RINvYNtCsgD2RYkpjhyG_16interfaces_tests13MockAllocatorNtNtCs8zwcuAlrZd5_6fugrip10interfaces14AllocatorTrait8allocateNtB5_8TestDataEB5_
FNDA:0,_RINvYpNtNtCsluqq0SikYQ1_6fugrip10interfaces14AllocatorTrait8allocatepEB8_
FNDA:0,_RINvYNtCsgD2RYkpjhyG_16interfaces_tests13MockAllocatorNtNtCs8zwcuAlrZd5_6fugrip10interfaces14AllocatorTrait8allocateNtB5_8TestDataEB5_
FNF:1
FNH:0
DA:52,0
DA:53,0
DA:54,0
BRF:0
BRH:0
LF:3
LH:0
end_of_record
SF:/home/martin/git/fugrip/src/lib.rs
FN:346,_RNCNvCs8zwcuAlrZd5_6fugrip24FREE_SINGLETON_TYPE_INFO0B3_
FN:349,_RNCNvCs8zwcuAlrZd5_6fugrip24FREE_SINGLETON_TYPE_INFOs0_0B3_
FN:347,_RNCNvCs8zwcuAlrZd5_6fugrip24FREE_SINGLETON_TYPE_INFOs_0B3_
FN:363,_RNCNvNvCs8zwcuAlrZd5_6fugrip9type_info15TYPE_INFO_CACHE0B5_
FN:88,_RNvMs2_Cs8zwcuAlrZd5_6fugripINtB5_7SendPtrINtB5_8GcHeaderuEE3newB5_
FN:92,_RNvMs2_Cs8zwcuAlrZd5_6fugripINtB5_7SendPtrINtB5_8GcHeaderuEE6as_ptrB5_
FN:80,_RNvXs0_Cs8zwcuAlrZd5_6fugripINtB5_7SendPtrINtB5_8GcHeaderuEENtNtCs6SNw0SRvItZ_4core5clone5Clone5cloneB5_
FN:389,_RNvCs8zwcuAlrZd5_6fugrip8align_up
FN:277,_RNvMsf_Cs8zwcuAlrZd5_6fugripNtB5_13FreeSingleton8instance
FN:332,_RNvXsg_Cs8zwcuAlrZd5_6fugripNtB5_8GcConfigNtNtCs6SNw0SRvItZ_4core7default7Default7default
FN:136,_RNvMs6_Cs8zwcuAlrZd5_6fugripINtB5_2GcNtCsd5KuqXdi8jy_20cross_platform_tests10TestObjectE3newBB_
FN:136,_RNvMs6_Cs8zwcuAlrZd5_6fugripINtB5_2GcNtNvCsd5KuqXdi8jy_20cross_platform_testss_34test_cross_platform_stack_scanning12NestedObjectE3newBD_
FN:208,_RNvMs9_Cs8zwcuAlrZd5_6fugripINtB5_5GcRefNtCsd5KuqXdi8jy_20cross_platform_tests10TestObjectE3newBE_
FN:208,_RNvMs9_Cs8zwcuAlrZd5_6fugripINtB5_5GcRefNtNvCsd5KuqXdi8jy_20cross_platform_testss_34test_cross_platform_stack_scanning12NestedObjectE3newBG_
FN:127,_RNvXs5_Cs8zwcuAlrZd5_6fugripINtB5_2GcNtCsd5KuqXdi8jy_20cross_platform_tests10TestObjectENtNtCs6SNw0SRvItZ_4core5clone5Clone5cloneBB_
FN:218,_RNvXsa_Cs8zwcuAlrZd5_6fugripINtB5_5GcRefNtCsd5KuqXdi8jy_20cross_platform_tests10TestObjectENtNtNtCs6SNw0SRvItZ_4core3ops5deref5Deref5derefBE_
FN:218,_RNvXsa_Cs8zwcuAlrZd5_6fugripINtB5_5GcRefNtNvCsd5KuqXdi8jy_20cross_platform_testss_34test_cross_platform_stack_scanning12NestedObjectENtNtNtCs6SNw0SRvItZ_4core3ops5deref5Deref5derefBG_
FN:389,_RNvCsluqq0SikYQ1_6fugrip8align_up
FN:88,_RNvMs2_Csluqq0SikYQ1_6fugripINtB5_7SendPtrpE3newB5_
FN:92,_RNvMs2_Csluqq0SikYQ1_6fugripINtB5_7SendPtrpE6as_ptrB5_
FN:183,_RNvMs7_Csluqq0SikYQ1_6fugripINtB5_4WeakpE4readB5_
FN:197,_RNvMs8_Csluqq0SikYQ1_6fugripINtB5_7WeakRefpE7upgradeB5_
FN:208,_RNvMs9_Csluqq0SikYQ1_6fugripINtB5_5GcRefpE3newB5_
FN:229,_RNvMsb_Csluqq0SikYQ1_6fugripINtB5_8GcRefMutpE3newB5_
FN:263,_RNvMse_Csluqq0SikYQ1_6fugripINtB5_17FinalizableObjectpE14mark_finalizedB5_
FN:256,_RNvMse_Csluqq0SikYQ1_6fugripINtB5_17FinalizableObjectpE3newB5_
FN:277,_RNvMsf_Csluqq0SikYQ1_6fugripNtB5_13FreeSingleton8instance
FN:80,_RNvXINICsluqq0SikYQ1_6fugrips0_0pEINtB5_7SendPtrpENtNtCs6SNw0SRvItZ_4core5clone5Clone5cloneB5_
FN:127,_RNvXINICsluqq0SikYQ1_6fugrips5_0pEINtB5_2GcpENtNtCs6SNw0SRvItZ_4core5clone5Clone5cloneB5_
FN:218,_RNvXINICsluqq0SikYQ1_6fugripsa_0pEINtB5_5GcRefpENtNtNtCs6SNw0SRvItZ_4core3ops5deref5Deref5derefB5_
FN:239,_RNvXINICsluqq0SikYQ1_6fugripsc_0pEINtB5_8GcRefMutpENtNtNtCs6SNw0SRvItZ_4core3ops5deref5Deref5derefB5_
FN:245,_RNvXINICsluqq0SikYQ1_6fugripsd_0pEINtB5_8GcRefMutpENtNtNtCs6SNw0SRvItZ_4core3ops5deref8DerefMut9deref_mutB5_
FN:410,_RNvXINICsluqq0SikYQ1_6fugripsh_0pEINtB5_4WeakpENtNtB5_6traits7GcTrace5traceB5_
FN:332,_RNvXsg_Csluqq0SikYQ1_6fugripNtB5_8GcConfigNtNtCs6SNw0SRvItZ_4core7default7Default7default
FN:357,_RINvCsluqq0SikYQ1_6fugrip9type_infoNtNtCshDtJu3Ru83O_5alloc6string6StringEB2_
FN:357,_RINvCsluqq0SikYQ1_6fugrip9type_infolEB2_
FN:375,_RNCINvCsluqq0SikYQ1_6fugrip9type_infoNtNtCshDtJu3Ru83O_5alloc6string6StringE0B4_
FN:381,_RNCINvCsluqq0SikYQ1_6fugrip9type_infoNtNtCshDtJu3Ru83O_5alloc6string6StringEs0_0B4_
FN:377,_RNCINvCsluqq0SikYQ1_6fugrip9type_infoNtNtCshDtJu3Ru83O_5alloc6string6StringEs_0B4_
FN:375,_RNCINvCsluqq0SikYQ1_6fugrip9type_infolE0B4_
FN:381,_RNCINvCsluqq0SikYQ1_6fugrip9type_infolEs0_0B4_
FN:377,_RNCINvCsluqq0SikYQ1_6fugrip9type_infolEs_0B4_
FN:346,_RNCNvCsluqq0SikYQ1_6fugrip24FREE_SINGLETON_TYPE_INFO0B3_
FN:349,_RNCNvCsluqq0SikYQ1_6fugrip24FREE_SINGLETON_TYPE_INFOs0_0B3_
FN:347,_RNCNvCsluqq0SikYQ1_6fugrip24FREE_SINGLETON_TYPE_INFOs_0B3_
FN:363,_RNCNvNvCsluqq0SikYQ1_6fugrip9type_info15TYPE_INFO_CACHE0B5_
FN:136,_RNvMs6_Csluqq0SikYQ1_6fugripINtB5_2GcNtNtCshDtJu3Ru83O_5alloc6string6StringE3newB5_
FN:151,_RNvMs6_Csluqq0SikYQ1_6fugripINtB5_2GcNtNtCshDtJu3Ru83O_5alloc6string6StringE6as_ptrB5_
FN:136,_RNvMs6_Csluqq0SikYQ1_6fugripINtB5_2GclE3newB5_
FN:151,_RNvMs6_Csluqq0SikYQ1_6fugripINtB5_2GclE6as_ptrB5_
FN:163,_RNvMs7_Csluqq0SikYQ1_6fugripINtB5_4WeaklE10new_simpleB5_
FN:171,_RNvMs7_Csluqq0SikYQ1_6fugripINtB5_4WeaklE11try_upgradeB5_
FN:455,_RNvNtCsluqq0SikYQ1_6fugrip5testss_13test_gc_write
FN:501,_RNvNtCsluqq0SikYQ1_6fugrip5testss_17test_census_phase
FN:490,_RNvNtCsluqq0SikYQ1_6fugrip5testss_22test_type_info_caching
FN:422,_RNvNtCsluqq0SikYQ1_6fugrip5testss_24test_basic_gc_allocation
FN:431,_RNvNtCsluqq0SikYQ1_6fugrip5testss_25test_gc_string_allocation
FN:440,_RNvNtCsluqq0SikYQ1_6fugrip5testss_25test_multiple_allocations
FN:468,_RNvNtCsluqq0SikYQ1_6fugrip5testss_28test_weak_reference_creation
FN:475,_RNvNtCsluqq0SikYQ1_6fugrip5testss_29test_forwarding_pointer_chain
FN:136,_RNvMs6_Cs8zwcuAlrZd5_6fugripINtB5_2GcNtCsi4uTEjUojl6_21gc_ref_wrappers_tests8TestDataE3newBB_
FN:151,_RNvMs6_Cs8zwcuAlrZd5_6fugripINtB5_2GcNtCsi4uTEjUojl6_21gc_ref_wrappers_tests8TestDataE6as_ptrBB_
FN:163,_RNvMs7_Cs8zwcuAlrZd5_6fugripINtB5_4WeakNtCsi4uTEjUojl6_21gc_ref_wrappers_tests8TestDataE10new_simpleBD_
FN:171,_RNvMs7_Cs8zwcuAlrZd5_6fugripINtB5_4WeakNtCsi4uTEjUojl6_21gc_ref_wrappers_tests8TestDataE11try_upgradeBD_
FN:183,_RNvMs7_Cs8zwcuAlrZd5_6fugripINtB5_4WeakNtCsi4uTEjUojl6_21gc_ref_wrappers_tests8TestDataE4readBD_
FN:197,_RNvMs8_Cs8zwcuAlrZd5_6fugripINtB5_7WeakRefNtCsi4uTEjUojl6_21gc_ref_wrappers_tests8TestDataE7upgradeBG_
FN:208,_RNvMs9_Cs8zwcuAlrZd5_6fugripINtB5_5GcRefNtCsi4uTEjUojl6_21gc_ref_wrappers_tests8TestDataE3newBE_
FN:263,_RNvMse_Cs8zwcuAlrZd5_6fugripINtB5_17FinalizableObjectNtCsi4uTEjUojl6_21gc_ref_wrappers_tests19FinalizableTestDataE14mark_finalizedBR_
FN:256,_RNvMse_Cs8zwcuAlrZd5_6fugripINtB5_17FinalizableObjectNtCsi4uTEjUojl6_21gc_ref_wrappers_tests19FinalizableTestDataE3newBR_
FN:256,_RNvMse_Cs8zwcuAlrZd5_6fugripINtB5_17FinalizableObjectNtNvNtCsi4uTEjUojl6_21gc_ref_wrappers_tests5testss_49test_finalizable_object_with_different_data_types10StringDataE3newBV_
FN:218,_RNvXsa_Cs8zwcuAlrZd5_6fugripINtB5_5GcRefNtCsi4uTEjUojl6_21gc_ref_wrappers_tests8TestDataENtNtNtCs6SNw0SRvItZ_4core3ops5deref5Deref5derefBE_
FN:357,_RINvCs8zwcuAlrZd5_6fugrip9type_infoNtCsgD2RYkpjhyG_16interfaces_tests8TestDataEBz_
FN:375,_RNCINvCs8zwcuAlrZd5_6fugrip9type_infoNtCsgD2RYkpjhyG_16interfaces_tests8TestDataE0BB_
FN:381,_RNCINvCs8zwcuAlrZd5_6fugrip9type_infoNtCsgD2RYkpjhyG_16interfaces_tests8TestDataEs0_0BB_
FN:377,_RNCINvCs8zwcuAlrZd5_6fugrip9type_infoNtCsgD2RYkpjhyG_16interfaces_tests8TestDataEs_0BB_
FN:151,_RNvMs6_Cs8zwcuAlrZd5_6fugripINtB5_2GcNtCsgD2RYkpjhyG_16interfaces_tests8TestDataE6as_ptrBB_
FN:357,_RINvCs8zwcuAlrZd5_6fugrip9type_infoNtCsalr00eiz6sG_21memory_coverage_tests8TestItemEBz_
FN:375,_RNCINvCs8zwcuAlrZd5_6fugrip9type_infoNtCsalr00eiz6sG_21memory_coverage_tests8TestItemE0BB_
FN:381,_RNCINvCs8zwcuAlrZd5_6fugrip9type_infoNtCsalr00eiz6sG_21memory_coverage_tests8TestItemEs0_0BB_
FN:377,_RNCINvCs8zwcuAlrZd5_6fugrip9type_infoNtCsalr00eiz6sG_21memory_coverage_tests8TestItemEs_0BB_
FN:151,_RNvMs6_Cs8zwcuAlrZd5_6fugripINtB5_2GcNtCsalr00eiz6sG_21memory_coverage_tests8TestItemE6as_ptrBB_
FN:136,_RNvMs6_Cs8zwcuAlrZd5_6fugripINtB5_2GcNtCshtEmztCjQIc_17memory_leak_tests12TrackingNodeE3newBB_
FN:151,_RNvMs6_Cs8zwcuAlrZd5_6fugripINtB5_2GcNtCshtEmztCjQIc_17memory_leak_tests12TrackingNodeE6as_ptrBB_
FN:163,_RNvMs7_Cs8zwcuAlrZd5_6fugripINtB5_4WeakNtCshtEmztCjQIc_17memory_leak_tests12TrackingNodeE10new_simpleBD_
FN:171,_RNvMs7_Cs8zwcuAlrZd5_6fugripINtB5_4WeakNtCshtEmztCjQIc_17memory_leak_tests12TrackingNodeE11try_upgradeBD_
FN:357,_RINvCs8zwcuAlrZd5_6fugrip9type_infolECsg1154uLySam_24memory_types_cover_tests
FN:375,_RNCINvCs8zwcuAlrZd5_6fugrip9type_infolE0Csg1154uLySam_24memory_types_cover_tests
FN:381,_RNCINvCs8zwcuAlrZd5_6fugrip9type_infolEs0_0Csg1154uLySam_24memory_types_cover_tests
FN:377,_RNCINvCs8zwcuAlrZd5_6fugrip9type_infolEs_0Csg1154uLySam_24memory_types_cover_tests
FN:151,_RNvMs6_Cs8zwcuAlrZd5_6fugripINtB5_2GclE6as_ptrCsg1154uLySam_24memory_types_cover_tests
FN:208,_RNvMs9_Cs8zwcuAlrZd5_6fugripINtB5_5GcReflE3newCsg1154uLySam_24memory_types_cover_tests
FN:218,_RNvXsa_Cs8zwcuAlrZd5_6fugripINtB5_5GcReflENtNtNtCs6SNw0SRvItZ_4core3ops5deref5Deref5derefCsg1154uLySam_24memory_types_cover_tests
FNDA:0,_RNCNvCs8zwcuAlrZd5_6fugrip24FREE_SINGLETON_TYPE_INFO0B3_
FNDA:0,_RNCNvCs8zwcuAlrZd5_6fugrip24FREE_SINGLETON_TYPE_INFOs0_0B3_
FNDA:0,_RNCNvCs8zwcuAlrZd5_6fugrip24FREE_SINGLETON_TYPE_INFOs_0B3_
FNDA:0,_RNCNvNvCs8zwcuAlrZd5_6fugrip9type_info15TYPE_INFO_CACHE0B5_
FNDA:420,_RNvMs2_Cs8zwcuAlrZd5_6fugripINtB5_7SendPtrINtB5_8GcHeaderuEE3newB5_
FNDA:0,_RNvMs2_Cs8zwcuAlrZd5_6fugripINtB5_7SendPtrINtB5_8GcHeaderuEE6as_ptrB5_
FNDA:0,_RNvXs0_Cs8zwcuAlrZd5_6fugripINtB5_7SendPtrINtB5_8GcHeaderuEENtNtCs6SNw0SRvItZ_4core5clone5Clone5cloneB5_
FNDA:0,_RNvCs8zwcuAlrZd5_6fugrip8align_up
FNDA:420,_RNvMsf_Cs8zwcuAlrZd5_6fugripNtB5_13FreeSingleton8instance
FNDA:0,_RNvXsg_Cs8zwcuAlrZd5_6fugripNtB5_8GcConfigNtNtCs6SNw0SRvItZ_4core7default7Default7default
FNDA:0,_RNvMs6_Cs8zwcuAlrZd5_6fugripINtB5_2GcNtCsd5KuqXdi8jy_20cross_platform_tests10TestObjectE3newBB_
FNDA:0,_RNvMs6_Cs8zwcuAlrZd5_6fugripINtB5_2GcNtNvCsd5KuqXdi8jy_20cross_platform_testss_34test_cross_platform_stack_scanning12NestedObjectE3newBD_
FNDA:0,_RNvMs9_Cs8zwcuAlrZd5_6fugripINtB5_5GcRefNtCsd5KuqXdi8jy_20cross_platform_tests10TestObjectE3newBE_
FNDA:0,_RNvMs9_Cs8zwcuAlrZd5_6fugripINtB5_5GcRefNtNvCsd5KuqXdi8jy_20cross_platform_testss_34test_cross_platform_stack_scanning12NestedObjectE3newBG_
FNDA:0,_RNvXs5_Cs8zwcuAlrZd5_6fugripINtB5_2GcNtCsd5KuqXdi8jy_20cross_platform_tests10TestObjectENtNtCs6SNw0SRvItZ_4core5clone5Clone5cloneBB_
FNDA:0,_RNvXsa_Cs8zwcuAlrZd5_6fugripINtB5_5GcRefNtCsd5KuqXdi8jy_20cross_platform_tests10TestObjectENtNtNtCs6SNw0SRvItZ_4core3ops5deref5Deref5derefBE_
FNDA:0,_RNvXsa_Cs8zwcuAlrZd5_6fugripINtB5_5GcRefNtNvCsd5KuqXdi8jy_20cross_platform_testss_34test_cross_platform_stack_scanning12NestedObjectENtNtNtCs6SNw0SRvItZ_4core3ops5deref5Deref5derefBG_
FNDA:0,_RNvCsluqq0SikYQ1_6fugrip8align_up
FNDA:0,_RNvMs2_Csluqq0SikYQ1_6fugripINtB5_7SendPtrpE3newB5_
FNDA:0,_RNvMs2_Csluqq0SikYQ1_6fugripINtB5_7SendPtrpE6as_ptrB5_
FNDA:0,_RNvMs7_Csluqq0SikYQ1_6fugripINtB5_4WeakpE4readB5_
FNDA:0,_RNvMs8_Csluqq0SikYQ1_6fugripINtB5_7WeakRefpE7upgradeB5_
FNDA:0,_RNvMs9_Csluqq0SikYQ1_6fugripINtB5_5GcRefpE3newB5_
FNDA:0,_RNvMsb_Csluqq0SikYQ1_6fugripINtB5_8GcRefMutpE3newB5_
FNDA:0,_RNvMse_Csluqq0SikYQ1_6fugripINtB5_17FinalizableObjectpE14mark_finalizedB5_
FNDA:0,_RNvMse_Csluqq0SikYQ1_6fugripINtB5_17FinalizableObjectpE3newB5_
FNDA:0,_RNvMsf_Csluqq0SikYQ1_6fugripNtB5_13FreeSingleton8instance
FNDA:0,_RNvXINICsluqq0SikYQ1_6fugrips0_0pEINtB5_7SendPtrpENtNtCs6SNw0SRvItZ_4core5clone5Clone5cloneB5_
FNDA:0,_RNvXINICsluqq0SikYQ1_6fugrips5_0pEINtB5_2GcpENtNtCs6SNw0SRvItZ_4core5clone5Clone5cloneB5_
FNDA:0,_RNvXINICsluqq0SikYQ1_6fugripsa_0pEINtB5_5GcRefpENtNtNtCs6SNw0SRvItZ_4core3ops5deref5Deref5derefB5_
FNDA:0,_RNvXINICsluqq0SikYQ1_6fugripsc_0pEINtB5_8GcRefMutpENtNtNtCs6SNw0SRvItZ_4core3ops5deref5Deref5derefB5_
FNDA:0,_RNvXINICsluqq0SikYQ1_6fugripsd_0pEINtB5_8GcRefMutpENtNtNtCs6SNw0SRvItZ_4core3ops5deref8DerefMut9deref_mutB5_
FNDA:0,_RNvXINICsluqq0SikYQ1_6fugripsh_0pEINtB5_4WeakpENtNtB5_6traits7GcTrace5traceB5_
FNDA:0,_RNvXsg_Csluqq0SikYQ1_6fugripNtB5_8GcConfigNtNtCs6SNw0SRvItZ_4core7default7Default7default
FNDA:2,_RINvCsluqq0SikYQ1_6fugrip9type_infoNtNtCshDtJu3Ru83O_5alloc6string6StringEB2_
FNDA:4,_RINvCsluqq0SikYQ1_6fugrip9type_infolEB2_
FNDA:0,_RNCINvCsluqq0SikYQ1_6fugrip9type_infoNtNtCshDtJu3Ru83O_5alloc6string6StringE0B4_
FNDA:0,_RNCINvCsluqq0SikYQ1_6fugrip9type_infoNtNtCshDtJu3Ru83O_5alloc6string6StringEs0_0B4_
FNDA:0,_RNCINvCsluqq0SikYQ1_6fugrip9type_infoNtNtCshDtJu3Ru83O_5alloc6string6StringEs_0B4_
FNDA:0,_RNCINvCsluqq0SikYQ1_6fugrip9type_infolE0B4_
FNDA:0,_RNCINvCsluqq0SikYQ1_6fugrip9type_infolEs0_0B4_
FNDA:0,_RNCINvCsluqq0SikYQ1_6fugrip9type_infolEs_0B4_
FNDA:0,_RNCNvCsluqq0SikYQ1_6fugrip24FREE_SINGLETON_TYPE_INFO0B3_
FNDA:0,_RNCNvCsluqq0SikYQ1_6fugrip24FREE_SINGLETON_TYPE_INFOs0_0B3_
FNDA:0,_RNCNvCsluqq0SikYQ1_6fugrip24FREE_SINGLETON_TYPE_INFOs_0B3_
FNDA:2,_RNCNvNvCsluqq0SikYQ1_6fugrip9type_info15TYPE_INFO_CACHE0B5_
FNDA:2,_RNvMs6_Csluqq0SikYQ1_6fugripINtB5_2GcNtNtCshDtJu3Ru83O_5alloc6string6StringE3newB5_
FNDA:2,_RNvMs6_Csluqq0SikYQ1_6fugripINtB5_2GcNtNtCshDtJu3Ru83O_5alloc6string6StringE6as_ptrB5_
FNDA:214,_RNvMs6_Csluqq0SikYQ1_6fugripINtB5_2GclE3newB5_
FNDA:218,_RNvMs6_Csluqq0SikYQ1_6fugripINtB5_2GclE6as_ptrB5_
FNDA:6,_RNvMs7_Csluqq0SikYQ1_6fugripINtB5_4WeaklE10new_simpleB5_
FNDA:2,_RNvMs7_Csluqq0SikYQ1_6fugripINtB5_4WeaklE11try_upgradeB5_
FNDA:2,_RNvNtCsluqq0SikYQ1_6fugrip5testss_13test_gc_write
FNDA:2,_RNvNtCsluqq0SikYQ1_6fugrip5testss_17test_census_phase
FNDA:2,_RNvNtCsluqq0SikYQ1_6fugrip5testss_22test_type_info_caching
FNDA:2,_RNvNtCsluqq0SikYQ1_6fugrip5testss_24test_basic_gc_allocation
FNDA:2,_RNvNtCsluqq0SikYQ1_6fugrip5testss_25test_gc_string_allocation
FNDA:2,_RNvNtCsluqq0SikYQ1_6fugrip5testss_25test_multiple_allocations
FNDA:2,_RNvNtCsluqq0SikYQ1_6fugrip5testss_28test_weak_reference_creation
FNDA:2,_RNvNtCsluqq0SikYQ1_6fugrip5testss_29test_forwarding_pointer_chain
FNDA:0,_RNvMs6_Cs8zwcuAlrZd5_6fugripINtB5_2GcNtCsi4uTEjUojl6_21gc_ref_wrappers_tests8TestDataE3newBB_
FNDA:0,_RNvMs6_Cs8zwcuAlrZd5_6fugripINtB5_2GcNtCsi4uTEjUojl6_21gc_ref_wrappers_tests8TestDataE6as_ptrBB_
FNDA:0,_RNvMs7_Cs8zwcuAlrZd5_6fugripINtB5_4WeakNtCsi4uTEjUojl6_21gc_ref_wrappers_tests8TestDataE10new_simpleBD_
FNDA:0,_RNvMs7_Cs8zwcuAlrZd5_6fugripINtB5_4WeakNtCsi4uTEjUojl6_21gc_ref_wrappers_tests8TestDataE11try_upgradeBD_
FNDA:0,_RNvMs7_Cs8zwcuAlrZd5_6fugripINtB5_4WeakNtCsi4uTEjUojl6_21gc_ref_wrappers_tests8TestDataE4readBD_
FNDA:0,_RNvMs8_Cs8zwcuAlrZd5_6fugripINtB5_7WeakRefNtCsi4uTEjUojl6_21gc_ref_wrappers_tests8TestDataE7upgradeBG_
FNDA:0,_RNvMs9_Cs8zwcuAlrZd5_6fugripINtB5_5GcRefNtCsi4uTEjUojl6_21gc_ref_wrappers_tests8TestDataE3newBE_
FNDA:0,_RNvMse_Cs8zwcuAlrZd5_6fugripINtB5_17FinalizableObjectNtCsi4uTEjUojl6_21gc_ref_wrappers_tests19FinalizableTestDataE14mark_finalizedBR_
FNDA:0,_RNvMse_Cs8zwcuAlrZd5_6fugripINtB5_17FinalizableObjectNtCsi4uTEjUojl6_21gc_ref_wrappers_tests19FinalizableTestDataE3newBR_
FNDA:0,_RNvMse_Cs8zwcuAlrZd5_6fugripINtB5_17FinalizableObjectNtNvNtCsi4uTEjUojl6_21gc_ref_wrappers_tests5testss_49test_finalizable_object_with_different_data_types10StringDataE3newBV_
FNDA:0,_RNvXsa_Cs8zwcuAlrZd5_6fugripINtB5_5GcRefNtCsi4uTEjUojl6_21gc_ref_wrappers_tests8TestDataENtNtNtCs6SNw0SRvItZ_4core3ops5deref5Deref5derefBE_
FNDA:0,_RINvCs8zwcuAlrZd5_6fugrip9type_infoNtCsgD2RYkpjhyG_16interfaces_tests8TestDataEBz_
FNDA:0,_RNCINvCs8zwcuAlrZd5_6fugrip9type_infoNtCsgD2RYkpjhyG_16interfaces_tests8TestDataE0BB_
FNDA:0,_RNCINvCs8zwcuAlrZd5_6fugrip9type_infoNtCsgD2RYkpjhyG_16interfaces_tests8TestDataEs0_0BB_
FNDA:0,_RNCINvCs8zwcuAlrZd5_6fugrip9type_infoNtCsgD2RYkpjhyG_16interfaces_tests8TestDataEs_0BB_
FNDA:0,_RNvMs6_Cs8zwcuAlrZd5_6fugripINtB5_2GcNtCsgD2RYkpjhyG_16interfaces_tests8TestDataE6as_ptrBB_
FNDA:0,_RINvCs8zwcuAlrZd5_6fugrip9type_infoNtCsalr00eiz6sG_21memory_coverage_tests8TestItemEBz_
FNDA:0,_RNCINvCs8zwcuAlrZd5_6fugrip9type_infoNtCsalr00eiz6sG_21memory_coverage_tests8TestItemE0BB_
FNDA:0,_RNCINvCs8zwcuAlrZd5_6fugrip9type_infoNtCsalr00eiz6sG_21memory_coverage_tests8TestItemEs0_0BB_
FNDA:0,_RNCINvCs8zwcuAlrZd5_6fugrip9type_infoNtCsalr00eiz6sG_21memory_coverage_tests8TestItemEs_0BB_
FNDA:0,_RNvMs6_Cs8zwcuAlrZd5_6fugripINtB5_2GcNtCsalr00eiz6sG_21memory_coverage_tests8TestItemE6as_ptrBB_
FNDA:0,_RNvMs6_Cs8zwcuAlrZd5_6fugripINtB5_2GcNtCshtEmztCjQIc_17memory_leak_tests12TrackingNodeE3newBB_
FNDA:0,_RNvMs6_Cs8zwcuAlrZd5_6fugripINtB5_2GcNtCshtEmztCjQIc_17memory_leak_tests12TrackingNodeE6as_ptrBB_
FNDA:0,_RNvMs7_Cs8zwcuAlrZd5_6fugripINtB5_4WeakNtCshtEmztCjQIc_17memory_leak_tests12TrackingNodeE10new_simpleBD_
FNDA:0,_RNvMs7_Cs8zwcuAlrZd5_6fugripINtB5_4WeakNtCshtEmztCjQIc_17memory_leak_tests12TrackingNodeE11try_upgradeBD_
FNDA:0,_RINvCs8zwcuAlrZd5_6fugrip9type_infolECsg1154uLySam_24memory_types_cover_tests
FNDA:0,_RNCINvCs8zwcuAlrZd5_6fugrip9type_infolE0Csg1154uLySam_24memory_types_cover_tests
FNDA:0,_RNCINvCs8zwcuAlrZd5_6fugrip9type_infolEs0_0Csg1154uLySam_24memory_types_cover_tests
FNDA:0,_RNCINvCs8zwcuAlrZd5_6fugrip9type_infolEs_0Csg1154uLySam_24memory_types_cover_tests
FNDA:0,_RNvMs6_Cs8zwcuAlrZd5_6fugripINtB5_2GclE6as_ptrCsg1154uLySam_24memory_types_cover_tests
FNDA:0,_RNvMs9_Cs8zwcuAlrZd5_6fugripINtB5_5GcReflE3newCsg1154uLySam_24memory_types_cover_tests
FNDA:0,_RNvXsa_Cs8zwcuAlrZd5_6fugripINtB5_5GcReflENtNtNtCs6SNw0SRvItZ_4core3ops5deref5Deref5derefCsg1154uLySam_24memory_types_cover_tests
FNF:37
FNH:16
DA:80,0
DA:81,0
DA:82,0
DA:88,420
DA:89,420
DA:90,420
DA:92,0
DA:93,0
DA:94,0
DA:127,0
DA:128,0
DA:129,0
DA:130,0
DA:131,0
DA:132,0
DA:136,216
DA:137,216
DA:138,216
DA:139,216
DA:140,216
DA:141,216
DA:142,216
DA:143,216
DA:144,216
DA:145,216
DA:146,216
DA:147,216
DA:148,216
DA:149,216
DA:151,220
DA:152,220
DA:153,220
DA:163,6
DA:164,6
DA:165,6
DA:166,6
DA:167,6
DA:168,6
DA:169,6
DA:171,2
DA:172,2
DA:173,2
DA:174,0
DA:176,2
DA:177,2
DA:178,2
DA:179,2
DA:181,2
DA:183,0
DA:184,0
DA:185,0
DA:186,0
DA:187,0
DA:188,0
DA:197,0
DA:198,0
DA:199,0
DA:208,0
DA:209,0
DA:210,0
DA:211,0
DA:212,0
DA:213,0
DA:218,0
DA:219,0
DA:220,0
DA:229,0
DA:230,0
DA:231,0
DA:232,0
DA:233,0
DA:234,0
DA:239,0
DA:240,0
DA:241,0
DA:245,0
DA:246,0
DA:247,0
DA:256,0
DA:257,0
DA:258,0
DA:259,0
DA:260,0
DA:261,0
DA:263,0
DA:264,0
DA:265,0
DA:266,0
DA:277,420
DA:279,420
DA:280,420
DA:281,2
DA:282,2
DA:283,2
DA:284,2
DA:285,2
DA:286,2
DA:287,2
DA:288,2
DA:289,2
DA:290,2
DA:291,2
DA:292,2
DA:293,2
DA:294,2
DA:295,2
DA:296,2
DA:297,2
DA:298,0
DA:301,418
DA:303,420
DA:332,0
DA:333,0
DA:334,0
DA:335,0
DA:336,0
DA:337,0
DA:338,0
DA:339,0
DA:340,0
DA:346,0
DA:347,0
DA:349,0
DA:357,6
DA:363,2
DA:365,6
DA:366,6
DA:368,6
DA:369,2
DA:370,4
DA:372,4
DA:373,4
DA:374,4
DA:375,0
DA:377,0
DA:378,0
DA:379,0
DA:380,4
DA:381,0
DA:382,4
DA:385,4
DA:386,4
DA:387,6
DA:389,0
DA:390,0
DA:391,0
DA:392,0
DA:393,0
DA:395,0
DA:397,0
DA:410,0
DA:412,0
DA:422,2
DA:423,2
DA:424,2
DA:425,2
DA:428,2
DA:431,2
DA:432,2
DA:433,2
DA:434,2
DA:437,2
DA:440,2
DA:441,2
DA:442,202
DA:443,200
DA:444,200
DA:446,202
DA:447,200
DA:448,200
DA:452,2
DA:455,2
DA:456,2
DA:458,2
DA:459,2
DA:462,2
DA:463,2
DA:465,2
DA:468,2
DA:469,2
DA:470,2
DA:471,2
DA:472,2
DA:475,2
DA:476,2
DA:477,2
DA:478,2
DA:479,2
DA:481,2
DA:482,2
DA:484,2
DA:485,2
DA:486,2
DA:487,2
DA:490,2
DA:491,2
DA:492,2
DA:494,2
DA:496,2
DA:497,2
DA:498,2
DA:501,2
DA:502,2
DA:503,2
DA:506,2
DA:507,2
DA:509,2
DA:510,2
DA:512,2
BRF:0
BRH:0
LF:209
LH:129
end_of_record
SF:/home/martin/git/fugrip/src/memory.rs
FN:688,_RNvMs7_NtCs8zwcuAlrZd5_6fugrip6memoryINtB7_4WeakuE21invalidate_weak_chain
FN:953,_RINvMsc_NtCs8zwcuAlrZd5_6fugrip6memoryNtB6_9ObjectSet16iterate_parallelNCNvMs1_NtB8_16collector_phasesNtB1f_14CollectorState34iterate_finalizer_objects_parallel0EB8_
FN:953,_RINvMsc_NtCs8zwcuAlrZd5_6fugrip6memoryNtB6_9ObjectSet16iterate_parallelNCNvMs8_B6_NtNtB8_16collector_phases14CollectorState12census_phase0EB8_
FN:953,_RINvMsc_NtCs8zwcuAlrZd5_6fugrip6memoryNtB6_9ObjectSet16iterate_parallelNCNvMs8_B6_NtNtB8_16collector_phases14CollectorState12census_phases0_0EB8_
FN:953,_RINvMsc_NtCs8zwcuAlrZd5_6fugrip6memoryNtB6_9ObjectSet16iterate_parallelNCNvMs8_B6_NtNtB8_16collector_phases14CollectorState12census_phases_0EB8_
FN:979,_RNCINvMsc_NtCs8zwcuAlrZd5_6fugrip6memoryNtB8_9ObjectSet16iterate_parallelNCNvMs1_NtBa_16collector_phasesNtB1h_14CollectorState34iterate_finalizer_objects_parallel0E0Ba_
FN:979,_RNCINvMsc_NtCs8zwcuAlrZd5_6fugrip6memoryNtB8_9ObjectSet16iterate_parallelNCNvMs8_B8_NtNtBa_16collector_phases14CollectorState12census_phase0E0Ba_
FN:979,_RNCINvMsc_NtCs8zwcuAlrZd5_6fugrip6memoryNtB8_9ObjectSet16iterate_parallelNCNvMs8_B8_NtNtBa_16collector_phases14CollectorState12census_phases0_0E0Ba_
FN:979,_RNCINvMsc_NtCs8zwcuAlrZd5_6fugrip6memoryNtB8_9ObjectSet16iterate_parallelNCNvMs8_B8_NtNtBa_16collector_phases14CollectorState12census_phases_0E0Ba_
FN:727,_RNCNvMs8_NtCs8zwcuAlrZd5_6fugrip6memoryNtNtB9_16collector_phases14CollectorState12census_phase0B9_
FN:763,_RNCNvMs8_NtCs8zwcuAlrZd5_6fugrip6memoryNtNtB9_16collector_phases14CollectorState12census_phases0_0B9_
FN:745,_RNCNvMs8_NtCs8zwcuAlrZd5_6fugrip6memoryNtNtB9_16collector_phases14CollectorState12census_phases_0B9_
FN:1122,_RNCNvNtCs8zwcuAlrZd5_6fugrip6memory5ROOTS0B5_
FN:355,_RNCNvNtCs8zwcuAlrZd5_6fugrip6memory9COLLECTOR0B5_
FN:1110,_RNCNvXsf_NtCs8zwcuAlrZd5_6fugrip6memoryNtB7_19ClassifiedAllocatorNtNtB9_10interfaces14AllocatorTrait12object_count0B9_
FN:1099,_RNCNvXsf_NtCs8zwcuAlrZd5_6fugrip6memoryNtB7_19ClassifiedAllocatorNtNtB9_10interfaces14AllocatorTrait15bytes_allocated0B9_
FN:196,_RNvMs1_NtCs8zwcuAlrZd5_6fugrip6memoryNtB5_13SegmentedHeap11add_segment
FN:217,_RNvMs1_NtCs8zwcuAlrZd5_6fugrip6memoryNtB5_13SegmentedHeap13segment_count
FN:258,_RNvMs1_NtCs8zwcuAlrZd5_6fugrip6memoryNtB5_13SegmentedHeap27try_allocate_raw_in_segment
FN:167,_RNvMs1_NtCs8zwcuAlrZd5_6fugrip6memoryNtB5_13SegmentedHeap3new
FN:327,_RNvMs4_NtCs8zwcuAlrZd5_6fugrip6memoryNtB5_7Segment3new
FN:53,_RNvMs_NtCs8zwcuAlrZd5_6fugrip6memoryNtB4_11GcAllocator3new
FN:125,_RNvMs_NtCs8zwcuAlrZd5_6fugrip6memoryNtB4_11GcAllocator8get_heap
FN:1016,_RNvMsc_NtCs8zwcuAlrZd5_6fugrip6memoryNtB5_9ObjectSet16get_object_count
FN:1022,_RNvMsc_NtCs8zwcuAlrZd5_6fugrip6memoryNtB5_9ObjectSet3add
FN:1027,_RNvMsc_NtCs8zwcuAlrZd5_6fugrip6memoryNtB5_9ObjectSet3len
FN:900,_RNvMsc_NtCs8zwcuAlrZd5_6fugrip6memoryNtB5_9ObjectSet3new
FN:1032,_RNvMsc_NtCs8zwcuAlrZd5_6fugrip6memoryNtB5_9ObjectSet8is_empty
FN:914,_RNvMsc_NtCs8zwcuAlrZd5_6fugrip6memoryNtB5_9ObjectSet8register
FN:1077,_RNvMse_NtCs8zwcuAlrZd5_6fugrip6memoryNtB5_19ClassifiedAllocator14get_object_set
FN:1082,_RNvMse_NtCs8zwcuAlrZd5_6fugrip6memoryNtB5_19ClassifiedAllocator19get_weak_object_set
FN:1055,_RNvMse_NtCs8zwcuAlrZd5_6fugrip6memoryNtB5_19ClassifiedAllocator3new
FN:1155,_RNvNtCs8zwcuAlrZd5_6fugrip6memory11scan_stacks
FN:35,_RNvXNtCs8zwcuAlrZd5_6fugrip6memoryNtB2_11GcAllocatorNtNtCs6SNw0SRvItZ_4core7default7Default7default
FN:151,_RNvXs0_NtCs8zwcuAlrZd5_6fugrip6memoryNtB5_13SegmentedHeapNtNtCs6SNw0SRvItZ_4core7default7Default7default
FN:827,_RNvXs9_NtCs8zwcuAlrZd5_6fugrip6memoryNtB5_13SegmentBufferNtNtCs6SNw0SRvItZ_4core7default7Default7default
FN:894,_RNvXsb_NtCs8zwcuAlrZd5_6fugrip6memoryNtB5_9ObjectSetNtNtCs6SNw0SRvItZ_4core7default7Default7default
FN:1049,_RNvXsd_NtCs8zwcuAlrZd5_6fugrip6memoryNtB5_19ClassifiedAllocatorNtNtCs6SNw0SRvItZ_4core7default7Default7default
FN:1107,_RNvXsf_NtCs8zwcuAlrZd5_6fugrip6memoryNtB5_19ClassifiedAllocatorNtNtB7_10interfaces14AllocatorTrait12object_count
FN:1094,_RNvXsf_NtCs8zwcuAlrZd5_6fugrip6memoryNtB5_19ClassifiedAllocatorNtNtB7_10interfaces14AllocatorTrait15bytes_allocated
FN:715,_RNvMs8_NtCs8zwcuAlrZd5_6fugrip6memoryNtNtB7_16collector_phases14CollectorState12census_phase
FN:779,_RNvMs8_NtCs8zwcuAlrZd5_6fugrip6memoryNtNtB7_16collector_phases14CollectorState21census_weak_reference
FN:805,_RNvMs8_NtCs8zwcuAlrZd5_6fugrip6memoryNtNtB7_16collector_phases14CollectorState28census_object_with_weak_refs
FN:361,_RNvMs5_NtCs8zwcuAlrZd5_6fugrip6memoryINtB7_2GcNtCsd5KuqXdi8jy_20cross_platform_tests10TestObjectE4readBK_
FN:361,_RNvMs5_NtCs8zwcuAlrZd5_6fugrip6memoryINtB7_2GcNtNvCsd5KuqXdi8jy_20cross_platform_testss_34test_cross_platform_stack_scanning12NestedObjectE4readBM_
FN:297,_RINvMs1_NtCsluqq0SikYQ1_6fugrip6memoryNtB6_13SegmentedHeap16initialize_gc_atpEB8_
FN:221,_RINvMs1_NtCsluqq0SikYQ1_6fugrip6memoryNtB6_13SegmentedHeap8allocatepEB8_
FN:449,_RINvMs6_NtCsluqq0SikYQ1_6fugrip6memoryINtB8_4WeakpE3newpEB8_
FN:85,_RINvMs_NtCsluqq0SikYQ1_6fugrip6memoryNtB5_11GcAllocator11allocate_gcpEB7_
FN:111,_RINvMs_NtCsluqq0SikYQ1_6fugrip6memoryNtB5_11GcAllocator18allocate_slow_pathpEB7_
FN:870,_RINvMsa_NtCsluqq0SikYQ1_6fugrip6memoryNtB6_19ClassifiedAllocator19allocate_classifiedpEB8_
FN:953,_RINvMsc_NtCsluqq0SikYQ1_6fugrip6memoryNtB6_9ObjectSet16iterate_parallelpEB8_
FN:1037,_RINvMsc_NtCsluqq0SikYQ1_6fugrip6memoryNtB6_9ObjectSet8for_eachpEB8_
FN:1144,_RINvNtCsluqq0SikYQ1_6fugrip6memory13register_rootpEB4_
FN:1089,_RINvXsf_NtCsluqq0SikYQ1_6fugrip6memoryNtB6_19ClassifiedAllocatorNtNtB8_10interfaces14AllocatorTrait19allocate_classifiedpEB8_
FN:87,_RNCINvMs_NtCsluqq0SikYQ1_6fugrip6memoryNtB7_11GcAllocator11allocate_gcpE0B9_
FN:90,_RNCINvMs_NtCsluqq0SikYQ1_6fugrip6memoryNtB7_11GcAllocator11allocate_gcpEs_0B9_
FN:979,_RNCINvMsc_NtCsluqq0SikYQ1_6fugrip6memoryNtB8_9ObjectSet16iterate_parallelpE0Ba_
FN:727,_RNCNvMs8_NtCsluqq0SikYQ1_6fugrip6memoryNtNtB9_16collector_phases14CollectorState12census_phase0B9_
FN:763,_RNCNvMs8_NtCsluqq0SikYQ1_6fugrip6memoryNtNtB9_16collector_phases14CollectorState12census_phases0_0B9_
FN:745,_RNCNvMs8_NtCsluqq0SikYQ1_6fugrip6memoryNtNtB9_16collector_phases14CollectorState12census_phases_0B9_
FN:1110,_RNCNvXsf_NtCsluqq0SikYQ1_6fugrip6memoryNtB7_19ClassifiedAllocatorNtNtB9_10interfaces14AllocatorTrait12object_count0B9_
FN:1099,_RNCNvXsf_NtCsluqq0SikYQ1_6fugrip6memoryNtB7_19ClassifiedAllocatorNtNtB9_10interfaces14AllocatorTrait15bytes_allocated0B9_
FN:196,_RNvMs1_NtCsluqq0SikYQ1_6fugrip6memoryNtB5_13SegmentedHeap11add_segment
FN:217,_RNvMs1_NtCsluqq0SikYQ1_6fugrip6memoryNtB5_13SegmentedHeap13segment_count
FN:258,_RNvMs1_NtCsluqq0SikYQ1_6fugrip6memoryNtB5_13SegmentedHeap27try_allocate_raw_in_segment
FN:361,_RNvMs5_NtCsluqq0SikYQ1_6fugrip6memoryINtB7_2GcpE4readB7_
FN:393,_RNvMs5_NtCsluqq0SikYQ1_6fugrip6memoryINtB7_2GcpE5writeB7_
FN:469,_RNvMs6_NtCsluqq0SikYQ1_6fugrip6memoryINtB7_4WeakpE20link_to_target_chainB7_
FN:661,_RNvMs6_NtCsluqq0SikYQ1_6fugrip6memoryINtB7_4WeakpE7upgradeB7_
FN:688,_RNvMs7_NtCsluqq0SikYQ1_6fugrip6memoryINtB7_4WeakuE21invalidate_weak_chain
FN:715,_RNvMs8_NtCsluqq0SikYQ1_6fugrip6memoryNtNtB7_16collector_phases14CollectorState12census_phase
FN:779,_RNvMs8_NtCsluqq0SikYQ1_6fugrip6memoryNtNtB7_16collector_phases14CollectorState21census_weak_reference
FN:805,_RNvMs8_NtCsluqq0SikYQ1_6fugrip6memoryNtNtB7_16collector_phases14CollectorState28census_object_with_weak_refs
FN:125,_RNvMs_NtCsluqq0SikYQ1_6fugrip6memoryNtB4_11GcAllocator8get_heap
FN:1016,_RNvMsc_NtCsluqq0SikYQ1_6fugrip6memoryNtB5_9ObjectSet16get_object_count
FN:1022,_RNvMsc_NtCsluqq0SikYQ1_6fugrip6memoryNtB5_9ObjectSet3add
FN:1027,_RNvMsc_NtCsluqq0SikYQ1_6fugrip6memoryNtB5_9ObjectSet3len
FN:1032,_RNvMsc_NtCsluqq0SikYQ1_6fugrip6memoryNtB5_9ObjectSet8is_empty
FN:914,_RNvMsc_NtCsluqq0SikYQ1_6fugrip6memoryNtB5_9ObjectSet8register
FN:1077,_RNvMse_NtCsluqq0SikYQ1_6fugrip6memoryNtB5_19ClassifiedAllocator14get_object_set
FN:1082,_RNvMse_NtCsluqq0SikYQ1_6fugrip6memoryNtB5_19ClassifiedAllocator19get_weak_object_set
FN:1155,_RNvNtCsluqq0SikYQ1_6fugrip6memory11scan_stacks
FN:35,_RNvXNtCsluqq0SikYQ1_6fugrip6memoryNtB2_11GcAllocatorNtNtCs6SNw0SRvItZ_4core7default7Default7default
FN:151,_RNvXs0_NtCsluqq0SikYQ1_6fugrip6memoryNtB5_13SegmentedHeapNtNtCs6SNw0SRvItZ_4core7default7Default7default
FN:827,_RNvXs9_NtCsluqq0SikYQ1_6fugrip6memoryNtB5_13SegmentBufferNtNtCs6SNw0SRvItZ_4core7default7Default7default
FN:894,_RNvXsb_NtCsluqq0SikYQ1_6fugrip6memoryNtB5_9ObjectSetNtNtCs6SNw0SRvItZ_4core7default7Default7default
FN:1049,_RNvXsd_NtCsluqq0SikYQ1_6fugrip6memoryNtB5_19ClassifiedAllocatorNtNtCs6SNw0SRvItZ_4core7default7Default7default
FN:1107,_RNvXsf_NtCsluqq0SikYQ1_6fugrip6memoryNtB5_19ClassifiedAllocatorNtNtB7_10interfaces14AllocatorTrait12object_count
FN:1094,_RNvXsf_NtCsluqq0SikYQ1_6fugrip6memoryNtB5_19ClassifiedAllocatorNtNtB7_10interfaces14AllocatorTrait15bytes_allocated
FN:167,_RNvMs1_NtCsluqq0SikYQ1_6fugrip6memoryNtB5_13SegmentedHeap3new
FN:327,_RNvMs4_NtCsluqq0SikYQ1_6fugrip6memoryNtB5_7Segment3new
FN:53,_RNvMs_NtCsluqq0SikYQ1_6fugrip6memoryNtB4_11GcAllocator3new
FN:900,_RNvMsc_NtCsluqq0SikYQ1_6fugrip6memoryNtB5_9ObjectSet3new
FN:1055,_RNvMse_NtCsluqq0SikYQ1_6fugrip6memoryNtB5_19ClassifiedAllocator3new
FN:1122,_RNCNvNtCsluqq0SikYQ1_6fugrip6memory5ROOTS0B5_
FN:355,_RNCNvNtCsluqq0SikYQ1_6fugrip6memory9COLLECTOR0B5_
FN:361,_RNvMs5_NtCs8zwcuAlrZd5_6fugrip6memoryINtB7_2GcNtCsi4uTEjUojl6_21gc_ref_wrappers_tests8TestDataE4readBK_
FN:297,_RINvMs1_NtCs8zwcuAlrZd5_6fugrip6memoryNtB6_13SegmentedHeap16initialize_gc_atNtCsalr00eiz6sG_21memory_coverage_tests8TestItemEB1e_
FN:221,_RINvMs1_NtCs8zwcuAlrZd5_6fugrip6memoryNtB6_13SegmentedHeap8allocateNtCsalr00eiz6sG_21memory_coverage_tests8TestItemEB15_
FN:85,_RINvMs_NtCs8zwcuAlrZd5_6fugrip6memoryNtB5_11GcAllocator11allocate_gcNtCsalr00eiz6sG_21memory_coverage_tests8TestItemEB16_
FN:111,_RINvMs_NtCs8zwcuAlrZd5_6fugrip6memoryNtB5_11GcAllocator18allocate_slow_pathNtCsalr00eiz6sG_21memory_coverage_tests8TestItemEB1d_
FN:870,_RINvMsa_NtCs8zwcuAlrZd5_6fugrip6memoryNtB6_19ClassifiedAllocator19allocate_classifiedNtCsalr00eiz6sG_21memory_coverage_tests8TestItemEB1n_
FN:1037,_RINvMsc_NtCs8zwcuAlrZd5_6fugrip6memoryNtB6_9ObjectSet8for_eachNCNvCsalr00eiz6sG_21memory_coverage_testss_29test_object_set_functionality0EB12_
FN:1037,_RINvMsc_NtCs8zwcuAlrZd5_6fugrip6memoryNtB6_9ObjectSet8for_eachNCNvCsalr00eiz6sG_21memory_coverage_testss_37test_object_set_concurrent_operationss_0EB12_
FN:87,_RNCINvMs_NtCs8zwcuAlrZd5_6fugrip6memoryNtB7_11GcAllocator11allocate_gcNtCsalr00eiz6sG_21memory_coverage_tests8TestItemE0B18_
FN:90,_RNCINvMs_NtCs8zwcuAlrZd5_6fugrip6memoryNtB7_11GcAllocator11allocate_gcNtCsalr00eiz6sG_21memory_coverage_tests8TestItemEs_0B18_
FN:297,_RINvMs1_NtCs8zwcuAlrZd5_6fugrip6memoryNtB6_13SegmentedHeap16initialize_gc_atlECsg1154uLySam_24memory_types_cover_tests
FN:221,_RINvMs1_NtCs8zwcuAlrZd5_6fugrip6memoryNtB6_13SegmentedHeap8allocatelECsg1154uLySam_24memory_types_cover_tests
FN:870,_RINvMsa_NtCs8zwcuAlrZd5_6fugrip6memoryNtB6_19ClassifiedAllocator19allocate_classifiedlECsg1154uLySam_24memory_types_cover_tests
FN:953,_RINvMsc_NtCs8zwcuAlrZd5_6fugrip6memoryNtB6_9ObjectSet16iterate_parallelNCNvCsg1154uLySam_24memory_types_cover_testss_35classified_allocator_and_object_set0EB1b_
FN:979,_RNCINvMsc_NtCs8zwcuAlrZd5_6fugrip6memoryNtB8_9ObjectSet16iterate_parallelNCNvCsg1154uLySam_24memory_types_cover_testss_35classified_allocator_and_object_set0E0B1d_
FN:361,_RNvMs5_NtCs8zwcuAlrZd5_6fugrip6memoryINtB7_2GclE4readCsg1154uLySam_24memory_types_cover_tests
FNDA:0,_RNvMs7_NtCs8zwcuAlrZd5_6fugrip6memoryINtB7_4WeakuE21invalidate_weak_chain
FNDA:0,_RINvMsc_NtCs8zwcuAlrZd5_6fugrip6memoryNtB6_9ObjectSet16iterate_parallelNCNvMs1_NtB8_16collector_phasesNtB1f_14CollectorState34iterate_finalizer_objects_parallel0EB8_
FNDA:0,_RINvMsc_NtCs8zwcuAlrZd5_6fugrip6memoryNtB6_9ObjectSet16iterate_parallelNCNvMs8_B6_NtNtB8_16collector_phases14CollectorState12census_phase0EB8_
FNDA:0,_RINvMsc_NtCs8zwcuAlrZd5_6fugrip6memoryNtB6_9ObjectSet16iterate_parallelNCNvMs8_B6_NtNtB8_16collector_phases14CollectorState12census_phases0_0EB8_
FNDA:0,_RINvMsc_NtCs8zwcuAlrZd5_6fugrip6memoryNtB6_9ObjectSet16iterate_parallelNCNvMs8_B6_NtNtB8_16collector_phases14CollectorState12census_phases_0EB8_
FNDA:0,_RNCINvMsc_NtCs8zwcuAlrZd5_6fugrip6memoryNtB8_9ObjectSet16iterate_parallelNCNvMs1_NtBa_16collector_phasesNtB1h_14CollectorState34iterate_finalizer_objects_parallel0E0Ba_
FNDA:0,_RNCINvMsc_NtCs8zwcuAlrZd5_6fugrip6memoryNtB8_9ObjectSet16iterate_parallelNCNvMs8_B8_NtNtBa_16collector_phases14CollectorState12census_phase0E0Ba_
FNDA:0,_RNCINvMsc_NtCs8zwcuAlrZd5_6fugrip6memoryNtB8_9ObjectSet16iterate_parallelNCNvMs8_B8_NtNtBa_16collector_phases14CollectorState12census_phases0_0E0Ba_
FNDA:0,_RNCINvMsc_NtCs8zwcuAlrZd5_6fugrip6memoryNtB8_9ObjectSet16iterate_parallelNCNvMs8_B8_NtNtBa_16collector_phases14CollectorState12census_phases_0E0Ba_
FNDA:0,_RNCNvMs8_NtCs8zwcuAlrZd5_6fugrip6memoryNtNtB9_16collector_phases14CollectorState12census_phase0B9_
FNDA:0,_RNCNvMs8_NtCs8zwcuAlrZd5_6fugrip6memoryNtNtB9_16collector_phases14CollectorState12census_phases0_0B9_
FNDA:0,_RNCNvMs8_NtCs8zwcuAlrZd5_6fugrip6memoryNtNtB9_16collector_phases14CollectorState12census_phases_0B9_
FNDA:0,_RNCNvNtCs8zwcuAlrZd5_6fugrip6memory5ROOTS0B5_
FNDA:0,_RNCNvNtCs8zwcuAlrZd5_6fugrip6memory9COLLECTOR0B5_
FNDA:0,_RNCNvXsf_NtCs8zwcuAlrZd5_6fugrip6memoryNtB7_19ClassifiedAllocatorNtNtB9_10interfaces14AllocatorTrait12object_count0B9_
FNDA:0,_RNCNvXsf_NtCs8zwcuAlrZd5_6fugrip6memoryNtB7_19ClassifiedAllocatorNtNtB9_10interfaces14AllocatorTrait15bytes_allocated0B9_
FNDA:0,_RNvMs1_NtCs8zwcuAlrZd5_6fugrip6memoryNtB5_13SegmentedHeap11add_segment
FNDA:0,_RNvMs1_NtCs8zwcuAlrZd5_6fugrip6memoryNtB5_13SegmentedHeap13segment_count
FNDA:0,_RNvMs1_NtCs8zwcuAlrZd5_6fugrip6memoryNtB5_13SegmentedHeap27try_allocate_raw_in_segment
FNDA:0,_RNvMs1_NtCs8zwcuAlrZd5_6fugrip6memoryNtB5_13SegmentedHeap3new
FNDA:0,_RNvMs4_NtCs8zwcuAlrZd5_6fugrip6memoryNtB5_7Segment3new
FNDA:0,_RNvMs_NtCs8zwcuAlrZd5_6fugrip6memoryNtB4_11GcAllocator3new
FNDA:0,_RNvMs_NtCs8zwcuAlrZd5_6fugrip6memoryNtB4_11GcAllocator8get_heap
FNDA:0,_RNvMsc_NtCs8zwcuAlrZd5_6fugrip6memoryNtB5_9ObjectSet16get_object_count
FNDA:0,_RNvMsc_NtCs8zwcuAlrZd5_6fugrip6memoryNtB5_9ObjectSet3add
FNDA:0,_RNvMsc_NtCs8zwcuAlrZd5_6fugrip6memoryNtB5_9ObjectSet3len
FNDA:0,_RNvMsc_NtCs8zwcuAlrZd5_6fugrip6memoryNtB5_9ObjectSet3new
FNDA:0,_RNvMsc_NtCs8zwcuAlrZd5_6fugrip6memoryNtB5_9ObjectSet8is_empty
FNDA:0,_RNvMsc_NtCs8zwcuAlrZd5_6fugrip6memoryNtB5_9ObjectSet8register
FNDA:0,_RNvMse_NtCs8zwcuAlrZd5_6fugrip6memoryNtB5_19ClassifiedAllocator14get_object_set
FNDA:0,_RNvMse_NtCs8zwcuAlrZd5_6fugrip6memoryNtB5_19ClassifiedAllocator19get_weak_object_set
FNDA:0,_RNvMse_NtCs8zwcuAlrZd5_6fugrip6memoryNtB5_19ClassifiedAllocator3new
FNDA:0,_RNvNtCs8zwcuAlrZd5_6fugrip6memory11scan_stacks
FNDA:0,_RNvXNtCs8zwcuAlrZd5_6fugrip6memoryNtB2_11GcAllocatorNtNtCs6SNw0SRvItZ_4core7default7Default7default
FNDA:0,_RNvXs0_NtCs8zwcuAlrZd5_6fugrip6memoryNtB5_13SegmentedHeapNtNtCs6SNw0SRvItZ_4core7default7Default7default
FNDA:2,_RNvXs9_NtCs8zwcuAlrZd5_6fugrip6memoryNtB5_13SegmentBufferNtNtCs6SNw0SRvItZ_4core7default7Default7default
FNDA:0,_RNvXsb_NtCs8zwcuAlrZd5_6fugrip6memoryNtB5_9ObjectSetNtNtCs6SNw0SRvItZ_4core7default7Default7default
FNDA:0,_RNvXsd_NtCs8zwcuAlrZd5_6fugrip6memoryNtB5_19ClassifiedAllocatorNtNtCs6SNw0SRvItZ_4core7default7Default7default
FNDA:0,_RNvXsf_NtCs8zwcuAlrZd5_6fugrip6memoryNtB5_19ClassifiedAllocatorNtNtB7_10interfaces14AllocatorTrait12object_count
FNDA:0,_RNvXsf_NtCs8zwcuAlrZd5_6fugrip6memoryNtB5_19ClassifiedAllocatorNtNtB7_10interfaces14AllocatorTrait15bytes_allocated
FNDA:0,_RNvMs8_NtCs8zwcuAlrZd5_6fugrip6memoryNtNtB7_16collector_phases14CollectorState12census_phase
FNDA:0,_RNvMs8_NtCs8zwcuAlrZd5_6fugrip6memoryNtNtB7_16collector_phases14CollectorState21census_weak_reference
FNDA:0,_RNvMs8_NtCs8zwcuAlrZd5_6fugrip6memoryNtNtB7_16collector_phases14CollectorState28census_object_with_weak_refs
FNDA:0,_RNvMs5_NtCs8zwcuAlrZd5_6fugrip6memoryINtB7_2GcNtCsd5KuqXdi8jy_20cross_platform_tests10TestObjectE4readBK_
FNDA:0,_RNvMs5_NtCs8zwcuAlrZd5_6fugrip6memoryINtB7_2GcNtNvCsd5KuqXdi8jy_20cross_platform_testss_34test_cross_platform_stack_scanning12NestedObjectE4readBM_
FNDA:0,_RINvMs1_NtCsluqq0SikYQ1_6fugrip6memoryNtB6_13SegmentedHeap16initialize_gc_atpEB8_
FNDA:0,_RINvMs1_NtCsluqq0SikYQ1_6fugrip6memoryNtB6_13SegmentedHeap8allocatepEB8_
FNDA:0,_RINvMs6_NtCsluqq0SikYQ1_6fugrip6memoryINtB8_4WeakpE3newpEB8_
FNDA:0,_RINvMs_NtCsluqq0SikYQ1_6fugrip6memoryNtB5_11GcAllocator11allocate_gcpEB7_
FNDA:0,_RINvMs_NtCsluqq0SikYQ1_6fugrip6memoryNtB5_11GcAllocator18allocate_slow_pathpEB7_
FNDA:0,_RINvMsa_NtCsluqq0SikYQ1_6fugrip6memoryNtB6_19ClassifiedAllocator19allocate_classifiedpEB8_
FNDA:0,_RINvMsc_NtCsluqq0SikYQ1_6fugrip6memoryNtB6_9ObjectSet16iterate_parallelpEB8_
FNDA:0,_RINvMsc_NtCsluqq0SikYQ1_6fugrip6memoryNtB6_9ObjectSet8for_eachpEB8_
FNDA:0,_RINvNtCsluqq0SikYQ1_6fugrip6memory13register_rootpEB4_
FNDA:0,_RINvXsf_NtCsluqq0SikYQ1_6fugrip6memoryNtB6_19ClassifiedAllocatorNtNtB8_10interfaces14AllocatorTrait19allocate_classifiedpEB8_
FNDA:0,_RNCINvMs_NtCsluqq0SikYQ1_6fugrip6memoryNtB7_11GcAllocator11allocate_gcpE0B9_
FNDA:0,_RNCINvMs_NtCsluqq0SikYQ1_6fugrip6memoryNtB7_11GcAllocator11allocate_gcpEs_0B9_
FNDA:0,_RNCINvMsc_NtCsluqq0SikYQ1_6fugrip6memoryNtB8_9ObjectSet16iterate_parallelpE0Ba_
FNDA:0,_RNCNvMs8_NtCsluqq0SikYQ1_6fugrip6memoryNtNtB9_16collector_phases14CollectorState12census_phase0B9_
FNDA:0,_RNCNvMs8_NtCsluqq0SikYQ1_6fugrip6memoryNtNtB9_16collector_phases14CollectorState12census_phases0_0B9_
FNDA:0,_RNCNvMs8_NtCsluqq0SikYQ1_6fugrip6memoryNtNtB9_16collector_phases14CollectorState12census_phases_0B9_
FNDA:0,_RNCNvXsf_NtCsluqq0SikYQ1_6fugrip6memoryNtB7_19ClassifiedAllocatorNtNtB9_10interfaces14AllocatorTrait12object_count0B9_
FNDA:0,_RNCNvXsf_NtCsluqq0SikYQ1_6fugrip6memoryNtB7_19ClassifiedAllocatorNtNtB9_10interfaces14AllocatorTrait15bytes_allocated0B9_
FNDA:0,_RNvMs1_NtCsluqq0SikYQ1_6fugrip6memoryNtB5_13SegmentedHeap11add_segment
FNDA:0,_RNvMs1_NtCsluqq0SikYQ1_6fugrip6memoryNtB5_13SegmentedHeap13segment_count
FNDA:0,_RNvMs1_NtCsluqq0SikYQ1_6fugrip6memoryNtB5_13SegmentedHeap27try_allocate_raw_in_segment
FNDA:0,_RNvMs5_NtCsluqq0SikYQ1_6fugrip6memoryINtB7_2GcpE4readB7_
FNDA:0,_RNvMs5_NtCsluqq0SikYQ1_6fugrip6memoryINtB7_2GcpE5writeB7_
FNDA:0,_RNvMs6_NtCsluqq0SikYQ1_6fugrip6memoryINtB7_4WeakpE20link_to_target_chainB7_
FNDA:0,_RNvMs6_NtCsluqq0SikYQ1_6fugrip6memoryINtB7_4WeakpE7upgradeB7_
FNDA:0,_RNvMs7_NtCsluqq0SikYQ1_6fugrip6memoryINtB7_4WeakuE21invalidate_weak_chain
FNDA:0,_RNvMs8_NtCsluqq0SikYQ1_6fugrip6memoryNtNtB7_16collector_phases14CollectorState12census_phase
FNDA:0,_RNvMs8_NtCsluqq0SikYQ1_6fugrip6memoryNtNtB7_16collector_phases14CollectorState21census_weak_reference
FNDA:0,_RNvMs8_NtCsluqq0SikYQ1_6fugrip6memoryNtNtB7_16collector_phases14CollectorState28census_object_with_weak_refs
FNDA:0,_RNvMs_NtCsluqq0SikYQ1_6fugrip6memoryNtB4_11GcAllocator8get_heap
FNDA:0,_RNvMsc_NtCsluqq0SikYQ1_6fugrip6memoryNtB5_9ObjectSet16get_object_count
FNDA:0,_RNvMsc_NtCsluqq0SikYQ1_6fugrip6memoryNtB5_9ObjectSet3add
FNDA:0,_RNvMsc_NtCsluqq0SikYQ1_6fugrip6memoryNtB5_9ObjectSet3len
FNDA:0,_RNvMsc_NtCsluqq0SikYQ1_6fugrip6memoryNtB5_9ObjectSet8is_empty
FNDA:0,_RNvMsc_NtCsluqq0SikYQ1_6fugrip6memoryNtB5_9ObjectSet8register
FNDA:0,_RNvMse_NtCsluqq0SikYQ1_6fugrip6memoryNtB5_19ClassifiedAllocator14get_object_set
FNDA:0,_RNvMse_NtCsluqq0SikYQ1_6fugrip6memoryNtB5_19ClassifiedAllocator19get_weak_object_set
FNDA:0,_RNvNtCsluqq0SikYQ1_6fugrip6memory11scan_stacks
FNDA:0,_RNvXNtCsluqq0SikYQ1_6fugrip6memoryNtB2_11GcAllocatorNtNtCs6SNw0SRvItZ_4core7default7Default7default
FNDA:0,_RNvXs0_NtCsluqq0SikYQ1_6fugrip6memoryNtB5_13SegmentedHeapNtNtCs6SNw0SRvItZ_4core7default7Default7default
FNDA:0,_RNvXs9_NtCsluqq0SikYQ1_6fugrip6memoryNtB5_13SegmentBufferNtNtCs6SNw0SRvItZ_4core7default7Default7default
FNDA:0,_RNvXsb_NtCsluqq0SikYQ1_6fugrip6memoryNtB5_9ObjectSetNtNtCs6SNw0SRvItZ_4core7default7Default7default
FNDA:0,_RNvXsd_NtCsluqq0SikYQ1_6fugrip6memoryNtB5_19ClassifiedAllocatorNtNtCs6SNw0SRvItZ_4core7default7Default7default
FNDA:0,_RNvXsf_NtCsluqq0SikYQ1_6fugrip6memoryNtB5_19ClassifiedAllocatorNtNtB7_10interfaces14AllocatorTrait12object_count
FNDA:0,_RNvXsf_NtCsluqq0SikYQ1_6fugrip6memoryNtB5_19ClassifiedAllocatorNtNtB7_10interfaces14AllocatorTrait15bytes_allocated
FNDA:0,_RNvMs1_NtCsluqq0SikYQ1_6fugrip6memoryNtB5_13SegmentedHeap3new
FNDA:0,_RNvMs4_NtCsluqq0SikYQ1_6fugrip6memoryNtB5_7Segment3new
FNDA:0,_RNvMs_NtCsluqq0SikYQ1_6fugrip6memoryNtB4_11GcAllocator3new
FNDA:0,_RNvMsc_NtCsluqq0SikYQ1_6fugrip6memoryNtB5_9ObjectSet3new
FNDA:0,_RNvMse_NtCsluqq0SikYQ1_6fugrip6memoryNtB5_19ClassifiedAllocator3new
FNDA:0,_RNCNvNtCsluqq0SikYQ1_6fugrip6memory5ROOTS0B5_
FNDA:0,_RNCNvNtCsluqq0SikYQ1_6fugrip6memory9COLLECTOR0B5_
FNDA:0,_RNvMs5_NtCs8zwcuAlrZd5_6fugrip6memoryINtB7_2GcNtCsi4uTEjUojl6_21gc_ref_wrappers_tests8TestDataE4readBK_
FNDA:0,_RINvMs1_NtCs8zwcuAlrZd5_6fugrip6memoryNtB6_13SegmentedHeap16initialize_gc_atNtCsalr00eiz6sG_21memory_coverage_tests8TestItemEB1e_
FNDA:0,_RINvMs1_NtCs8zwcuAlrZd5_6fugrip6memoryNtB6_13SegmentedHeap8allocateNtCsalr00eiz6sG_21memory_coverage_tests8TestItemEB15_
FNDA:0,_RINvMs_NtCs8zwcuAlrZd5_6fugrip6memoryNtB5_11GcAllocator11allocate_gcNtCsalr00eiz6sG_21memory_coverage_tests8TestItemEB16_
FNDA:0,_RINvMs_NtCs8zwcuAlrZd5_6fugrip6memoryNtB5_11GcAllocator18allocate_slow_pathNtCsalr00eiz6sG_21memory_coverage_tests8TestItemEB1d_
FNDA:0,_RINvMsa_NtCs8zwcuAlrZd5_6fugrip6memoryNtB6_19ClassifiedAllocator19allocate_classifiedNtCsalr00eiz6sG_21memory_coverage_tests8TestItemEB1n_
FNDA:0,_RINvMsc_NtCs8zwcuAlrZd5_6fugrip6memoryNtB6_9ObjectSet8for_eachNCNvCsalr00eiz6sG_21memory_coverage_testss_29test_object_set_functionality0EB12_
FNDA:0,_RINvMsc_NtCs8zwcuAlrZd5_6fugrip6memoryNtB6_9ObjectSet8for_eachNCNvCsalr00eiz6sG_21memory_coverage_testss_37test_object_set_concurrent_operationss_0EB12_
FNDA:0,_RNCINvMs_NtCs8zwcuAlrZd5_6fugrip6memoryNtB7_11GcAllocator11allocate_gcNtCsalr00eiz6sG_21memory_coverage_tests8TestItemE0B18_
FNDA:0,_RNCINvMs_NtCs8zwcuAlrZd5_6fugrip6memoryNtB7_11GcAllocator11allocate_gcNtCsalr00eiz6sG_21memory_coverage_tests8TestItemEs_0B18_
FNDA:0,_RINvMs1_NtCs8zwcuAlrZd5_6fugrip6memoryNtB6_13SegmentedHeap16initialize_gc_atlECsg1154uLySam_24memory_types_cover_tests
FNDA:0,_RINvMs1_NtCs8zwcuAlrZd5_6fugrip6memoryNtB6_13SegmentedHeap8allocatelECsg1154uLySam_24memory_types_cover_tests
FNDA:0,_RINvMsa_NtCs8zwcuAlrZd5_6fugrip6memoryNtB6_19ClassifiedAllocator19allocate_classifiedlECsg1154uLySam_24memory_types_cover_tests
FNDA:0,_RINvMsc_NtCs8zwcuAlrZd5_6fugrip6memoryNtB6_9ObjectSet16iterate_parallelNCNvCsg1154uLySam_24memory_types_cover_testss_35classified_allocator_and_object_set0EB1b_
FNDA:0,_RNCINvMsc_NtCs8zwcuAlrZd5_6fugrip6memoryNtB8_9ObjectSet16iterate_parallelNCNvCsg1154uLySam_24memory_types_cover_testss_35classified_allocator_and_object_set0E0B1d_
FNDA:0,_RNvMs5_NtCs8zwcuAlrZd5_6fugrip6memoryINtB7_2GclE4readCsg1154uLySam_24memory_types_cover_tests
FNF:52
FNH:1
DA:35,0
DA:36,0
DA:37,0
DA:53,0
DA:54,0
DA:55,0
DA:56,0
DA:57,0
DA:58,0
DA:59,0
DA:60,0
DA:85,0
DA:87,0
DA:89,0
DA:90,0
DA:92,0
DA:93,0
DA:94,0
DA:95,0
DA:96,0
DA:97,0
DA:98,0
DA:99,0
DA:100,0
DA:101,0
DA:102,0
DA:103,0
DA:105,0
DA:108,0
DA:109,0
DA:111,0
DA:113,0
DA:114,0
DA:115,0
DA:116,0
DA:117,0
DA:120,0
DA:121,0
DA:125,0
DA:126,0
DA:127,0
DA:151,0
DA:152,0
DA:153,0
DA:167,0
DA:168,0
DA:169,0
DA:170,0
DA:171,0
DA:172,0
DA:173,0
DA:174,0
DA:196,0
DA:197,0
DA:198,0
DA:199,0
DA:200,0
DA:201,0
DA:202,0
DA:217,0
DA:218,0
DA:219,0
DA:221,0
DA:222,0
DA:223,0
DA:226,0
DA:227,0
DA:228,0
DA:229,0
DA:230,0
DA:231,0
DA:234,0
DA:235,0
DA:236,0
DA:237,0
DA:240,0
DA:241,0
DA:242,0
DA:243,0
DA:247,0
DA:248,0
DA:249,0
DA:250,0
DA:251,0
DA:252,0
DA:255,0
DA:256,0
DA:258,0
DA:259,0
DA:260,0
DA:261,0
DA:262,0
DA:263,0
DA:264,0
DA:265,0
DA:266,0
DA:267,0
DA:269,0
DA:272,0
DA:273,0
DA:274,0
DA:275,0
DA:276,0
DA:278,0
DA:279,0
DA:280,0
DA:282,0
DA:283,0
DA:284,0
DA:285,0
DA:286,0
DA:287,0
DA:288,0
DA:289,0
DA:290,0
DA:292,0
DA:293,0
DA:295,0
DA:297,0
DA:299,0
DA:300,0
DA:301,0
DA:302,0
DA:303,0
DA:304,0
DA:305,0
DA:306,0
DA:307,0
DA:308,0
DA:309,0
DA:310,0
DA:312,0
DA:327,0
DA:329,0
DA:332,0
DA:333,0
DA:334,0
DA:335,0
DA:336,0
DA:337,0
DA:339,0
DA:340,0
DA:342,0
DA:343,0
DA:344,0
DA:345,0
DA:346,0
DA:347,0
DA:348,0
DA:349,0
DA:355,0
DA:361,0
DA:364,0
DA:365,0
DA:368,0
DA:369,0
DA:370,0
DA:371,0
DA:372,0
DA:373,0
DA:374,0
DA:379,0
DA:380,0
DA:381,0
DA:384,0
DA:385,0
DA:386,0
DA:388,0
DA:390,0
DA:393,0
DA:396,0
DA:397,0
DA:400,0
DA:401,0
DA:402,0
DA:403,0
DA:404,0
DA:405,0
DA:406,0
DA:411,0
DA:412,0
DA:413,0
DA:416,0
DA:417,0
DA:418,0
DA:421,0
DA:423,0
DA:449,0
DA:450,0
DA:451,0
DA:452,0
DA:453,0
DA:454,0
DA:457,0
DA:460,0
DA:461,0
DA:462,0
DA:464,0
DA:465,0
DA:469,0
DA:470,0
DA:471,0
DA:473,0
DA:474,0
DA:478,0
DA:481,0
DA:482,0
DA:483,0
DA:484,0
DA:485,0
DA:486,0
DA:487,0
DA:490,0
DA:491,0
DA:492,0
DA:493,0
DA:496,0
DA:497,0
DA:498,0
DA:499,0
DA:500,0
DA:501,0
DA:502,0
DA:503,0
DA:506,0
DA:661,0
DA:662,0
DA:663,0
DA:665,0
DA:666,0
DA:668,0
DA:669,0
DA:670,0
DA:671,0
DA:673,0
DA:688,0
DA:689,0
DA:691,0
DA:692,0
DA:693,0
DA:694,0
DA:695,0
DA:696,0
DA:697,0
DA:698,0
DA:699,0
DA:700,0
DA:701,0
DA:702,0
DA:703,0
DA:704,0
DA:705,0
DA:706,0
DA:707,0
DA:708,0
DA:709,0
DA:710,0
DA:715,0
DA:716,0
DA:717,0
DA:721,0
DA:724,0
DA:727,0
DA:730,0
DA:731,0
DA:732,0
DA:734,0
DA:735,0
DA:736,0
DA:737,0
DA:738,0
DA:739,0
DA:741,0
DA:744,0
DA:745,0
DA:748,0
DA:751,0
DA:752,0
DA:753,0
DA:754,0
DA:755,0
DA:756,0
DA:758,0
DA:761,0
DA:762,0
DA:763,0
DA:766,0
DA:769,0
DA:770,0
DA:771,0
DA:772,0
DA:773,0
DA:774,0
DA:776,0
DA:777,0
DA:779,0
DA:781,0
DA:782,0
DA:783,0
DA:785,0
DA:786,0
DA:787,0
DA:788,0
DA:789,0
DA:790,0
DA:792,0
DA:805,0
DA:807,0
DA:810,0
DA:811,0
DA:812,0
DA:813,0
DA:814,0
DA:815,0
DA:817,0
DA:827,2
DA:828,2
DA:829,2
DA:830,2
DA:831,2
DA:832,2
DA:833,2
DA:870,0
DA:871,0
DA:872,0
DA:875,0
DA:877,0
DA:878,0
DA:894,0
DA:895,0
DA:896,0
DA:900,0
DA:901,0
DA:902,0
DA:903,0
DA:904,0
DA:905,0
DA:906,0
DA:907,0
DA:908,0
DA:909,0
DA:914,0
DA:915,0
DA:916,0
DA:953,0
DA:954,0
DA:955,0
DA:957,0
DA:958,0
DA:960,0
DA:961,0
DA:962,0
DA:964,0
DA:965,0
DA:966,0
DA:968,0
DA:969,0
DA:970,0
DA:972,0
DA:973,0
DA:974,0
DA:976,0
DA:977,0
DA:979,0
DA:980,0
DA:981,0
DA:982,0
DA:983,0
DA:985,0
DA:989,0
DA:990,0
DA:991,0
DA:992,0
DA:1016,0
DA:1017,0
DA:1018,0
DA:1022,0
DA:1023,0
DA:1024,0
DA:1027,0
DA:1028,0
DA:1029,0
DA:1032,0
DA:1033,0
DA:1034,0
DA:1037,0
DA:1038,0
DA:1039,0
DA:1041,0
DA:1042,0
DA:1043,0
DA:1044,0
DA:1045,0
DA:1049,0
DA:1050,0
DA:1051,0
DA:1055,0
DA:1056,0
DA:1057,0
DA:1058,0
DA:1059,0
DA:1060,0
DA:1061,0
DA:1062,0
DA:1063,0
DA:1064,0
DA:1065,0
DA:1066,0
DA:1067,0
DA:1068,0
DA:1069,0
DA:1070,0
DA:1071,0
DA:1072,0
DA:1073,0
DA:1074,0
DA:1077,0
DA:1078,0
DA:1079,0
DA:1082,0
DA:1083,0
DA:1084,0
DA:1089,0
DA:1091,0
DA:1092,0
DA:1094,0
DA:1096,0
DA:1097,0
DA:1098,0
DA:1099,0
DA:1100,0
DA:1101,0
DA:1102,0
DA:1103,0
DA:1104,0
DA:1105,0
DA:1107,0
DA:1108,0
DA:1109,0
DA:1110,0
DA:1111,0
DA:1112,0
DA:1122,0
DA:1144,0
DA:1145,0
DA:1146,0
DA:1148,0
DA:1149,0
DA:1150,0
DA:1151,0
DA:1152,0
DA:1155,0
DA:1158,0
DA:1163,0
BRF:0
BRH:0
LF:462
LH:7
end_of_record
SF:/home/martin/git/fugrip/src/traits.rs
FN:132,_RNvXININtCsluqq0SikYQ1_6fugrip6traitsse_0pEINtNtCshDtJu3Ru83O_5alloc3vec3VecpENtB5_7GcTrace5traceB7_
FN:140,_RNvXININtCsluqq0SikYQ1_6fugrip6traitssf_0pEINtNtCs6SNw0SRvItZ_4core6option6OptionpENtB5_7GcTrace5traceB7_
FN:148,_RNvXININtCsluqq0SikYQ1_6fugrip6traitssg_0pEINtNtCshDtJu3Ru83O_5alloc5boxed3BoxpENtB5_7GcTrace5traceB7_
FN:155,_RNvXININtCsluqq0SikYQ1_6fugrip6traitssh_0pETpENtB5_7GcTrace5traceB7_
FN:161,_RNvXININtCsluqq0SikYQ1_6fugrip6traitssi_0ppETppENtB5_7GcTrace5traceB7_
FN:170,_RNvXININtCsluqq0SikYQ1_6fugrip6traitssj_0pppETpppENtB5_7GcTrace5traceB7_
FN:66,_RNvXNtCsluqq0SikYQ1_6fugrip6traitslNtB2_7GcTrace5trace
FN:74,_RNvXs0_NtCsluqq0SikYQ1_6fugrip6traitsNtNtCshDtJu3Ru83O_5alloc6string6StringNtB5_7GcTrace5trace
FN:78,_RNvXs1_NtCsluqq0SikYQ1_6fugrip6traitsuNtB5_7GcTrace5trace
FN:83,_RNvXs2_NtCsluqq0SikYQ1_6fugrip6traitshNtB5_7GcTrace5trace
FN:87,_RNvXs3_NtCsluqq0SikYQ1_6fugrip6traitsaNtB5_7GcTrace5trace
FN:91,_RNvXs4_NtCsluqq0SikYQ1_6fugrip6traitstNtB5_7GcTrace5trace
FN:95,_RNvXs5_NtCsluqq0SikYQ1_6fugrip6traitssNtB5_7GcTrace5trace
FN:99,_RNvXs6_NtCsluqq0SikYQ1_6fugrip6traitsmNtB5_7GcTrace5trace
FN:103,_RNvXs7_NtCsluqq0SikYQ1_6fugrip6traitsxNtB5_7GcTrace5trace
FN:107,_RNvXs8_NtCsluqq0SikYQ1_6fugrip6traitsyNtB5_7GcTrace5trace
FN:111,_RNvXs9_NtCsluqq0SikYQ1_6fugrip6traitsiNtB5_7GcTrace5trace
FN:70,_RNvXs_NtCsluqq0SikYQ1_6fugrip6traitsjNtB4_7GcTrace5trace
FN:115,_RNvXsa_NtCsluqq0SikYQ1_6fugrip6traitsfNtB5_7GcTrace5trace
FN:119,_RNvXsb_NtCsluqq0SikYQ1_6fugrip6traitsdNtB5_7GcTrace5trace
FN:123,_RNvXsc_NtCsluqq0SikYQ1_6fugrip6traitsbNtB5_7GcTrace5trace
FN:127,_RNvXsd_NtCsluqq0SikYQ1_6fugrip6traitscNtB5_7GcTrace5trace
FN:340,_RNvYpNtNtCsluqq0SikYQ1_6fugrip6traits7GcStats12custom_statsB7_
FN:140,_RNvXsf_NtCs8zwcuAlrZd5_6fugrip6traitsINtNtCs6SNw0SRvItZ_4core6option6OptionlENtB5_7GcTrace5traceCs5bXVDiB1iVE_21traits_expanded_tests
FN:132,_RNvXse_NtCs8zwcuAlrZd5_6fugrip6traitsINtNtCshDtJu3Ru83O_5alloc3vec3VeclENtB5_7GcTrace5traceCs5bXVDiB1iVE_21traits_expanded_tests
FN:155,_RNvXsh_NtCs8zwcuAlrZd5_6fugrip6traitsTlENtB5_7GcTrace5traceCs5bXVDiB1iVE_21traits_expanded_tests
FN:161,_RNvXsi_NtCs8zwcuAlrZd5_6fugrip6traitsTllENtB5_7GcTrace5traceCs5bXVDiB1iVE_21traits_expanded_tests
FN:170,_RNvXsj_NtCs8zwcuAlrZd5_6fugrip6traitsTlllENtB5_7GcTrace5traceCs5bXVDiB1iVE_21traits_expanded_tests
FN:148,_RNvXsg_NtCs8zwcuAlrZd5_6fugrip6traitsINtNtCshDtJu3Ru83O_5alloc5boxed3BoxlENtB5_7GcTrace5traceCs5bXVDiB1iVE_21traits_expanded_tests
FN:66,_RNvXNtCs8zwcuAlrZd5_6fugrip6traitslNtB2_7GcTrace5trace
FN:78,_RNvXs1_NtCs8zwcuAlrZd5_6fugrip6traitsuNtB5_7GcTrace5trace
FN:83,_RNvXs2_NtCs8zwcuAlrZd5_6fugrip6traitshNtB5_7GcTrace5trace
FN:87,_RNvXs3_NtCs8zwcuAlrZd5_6fugrip6traitsaNtB5_7GcTrace5trace
FN:91,_RNvXs4_NtCs8zwcuAlrZd5_6fugrip6traitstNtB5_7GcTrace5trace
FN:95,_RNvXs5_NtCs8zwcuAlrZd5_6fugrip6traitssNtB5_7GcTrace5trace
FN:99,_RNvXs6_NtCs8zwcuAlrZd5_6fugrip6traitsmNtB5_7GcTrace5trace
FN:103,_RNvXs7_NtCs8zwcuAlrZd5_6fugrip6traitsxNtB5_7GcTrace5trace
FN:107,_RNvXs8_NtCs8zwcuAlrZd5_6fugrip6traitsyNtB5_7GcTrace5trace
FN:111,_RNvXs9_NtCs8zwcuAlrZd5_6fugrip6traitsiNtB5_7GcTrace5trace
FN:70,_RNvXs_NtCs8zwcuAlrZd5_6fugrip6traitsjNtB4_7GcTrace5trace
FN:115,_RNvXsa_NtCs8zwcuAlrZd5_6fugrip6traitsfNtB5_7GcTrace5trace
FN:119,_RNvXsb_NtCs8zwcuAlrZd5_6fugrip6traitsdNtB5_7GcTrace5trace
FN:123,_RNvXsc_NtCs8zwcuAlrZd5_6fugrip6traitsbNtB5_7GcTrace5trace
FN:127,_RNvXsd_NtCs8zwcuAlrZd5_6fugrip6traitscNtB5_7GcTrace5trace
FN:74,_RNvXs0_NtCs8zwcuAlrZd5_6fugrip6traitsNtNtCshDtJu3Ru83O_5alloc6string6StringNtB5_7GcTrace5trace
FN:148,_RNvXsg_NtCs8zwcuAlrZd5_6fugrip6traitsINtNtCshDtJu3Ru83O_5alloc5boxed3BoxlENtB5_7GcTrace5traceCs56HuWgCOMmT_12traits_tests
FN:155,_RNvXsh_NtCs8zwcuAlrZd5_6fugrip6traitsTlENtB5_7GcTrace5traceCs56HuWgCOMmT_12traits_tests
FN:161,_RNvXsi_NtCs8zwcuAlrZd5_6fugrip6traitsTllENtB5_7GcTrace5traceCs56HuWgCOMmT_12traits_tests
FN:170,_RNvXsj_NtCs8zwcuAlrZd5_6fugrip6traitsTlllENtB5_7GcTrace5traceCs56HuWgCOMmT_12traits_tests
FN:132,_RNvXse_NtCs8zwcuAlrZd5_6fugrip6traitsINtNtCshDtJu3Ru83O_5alloc3vec3VeclENtB5_7GcTrace5traceCs56HuWgCOMmT_12traits_tests
FN:140,_RNvXsf_NtCs8zwcuAlrZd5_6fugrip6traitsINtNtCs6SNw0SRvItZ_4core6option6OptionlENtB5_7GcTrace5traceCs56HuWgCOMmT_12traits_tests
FNDA:0,_RNvXININtCsluqq0SikYQ1_6fugrip6traitsse_0pEINtNtCshDtJu3Ru83O_5alloc3vec3VecpENtB5_7GcTrace5traceB7_
FNDA:0,_RNvXININtCsluqq0SikYQ1_6fugrip6traitssf_0pEINtNtCs6SNw0SRvItZ_4core6option6OptionpENtB5_7GcTrace5traceB7_
FNDA:0,_RNvXININtCsluqq0SikYQ1_6fugrip6traitssg_0pEINtNtCshDtJu3Ru83O_5alloc5boxed3BoxpENtB5_7GcTrace5traceB7_
FNDA:0,_RNvXININtCsluqq0SikYQ1_6fugrip6traitssh_0pETpENtB5_7GcTrace5traceB7_
FNDA:0,_RNvXININtCsluqq0SikYQ1_6fugrip6traitssi_0ppETppENtB5_7GcTrace5traceB7_
FNDA:0,_RNvXININtCsluqq0SikYQ1_6fugrip6traitssj_0pppETpppENtB5_7GcTrace5traceB7_
FNDA:0,_RNvXNtCsluqq0SikYQ1_6fugrip6traitslNtB2_7GcTrace5trace
FNDA:0,_RNvXs0_NtCsluqq0SikYQ1_6fugrip6traitsNtNtCshDtJu3Ru83O_5alloc6string6StringNtB5_7GcTrace5trace
FNDA:0,_RNvXs1_NtCsluqq0SikYQ1_6fugrip6traitsuNtB5_7GcTrace5trace
FNDA:0,_RNvXs2_NtCsluqq0SikYQ1_6fugrip6traitshNtB5_7GcTrace5trace
FNDA:0,_RNvXs3_NtCsluqq0SikYQ1_6fugrip6traitsaNtB5_7GcTrace5trace
FNDA:0,_RNvXs4_NtCsluqq0SikYQ1_6fugrip6traitstNtB5_7GcTrace5trace
FNDA:0,_RNvXs5_NtCsluqq0SikYQ1_6fugrip6traitssNtB5_7GcTrace5trace
FNDA:0,_RNvXs6_NtCsluqq0SikYQ1_6fugrip6traitsmNtB5_7GcTrace5trace
FNDA:0,_RNvXs7_NtCsluqq0SikYQ1_6fugrip6traitsxNtB5_7GcTrace5trace
FNDA:0,_RNvXs8_NtCsluqq0SikYQ1_6fugrip6traitsyNtB5_7GcTrace5trace
FNDA:0,_RNvXs9_NtCsluqq0SikYQ1_6fugrip6traitsiNtB5_7GcTrace5trace
FNDA:0,_RNvXs_NtCsluqq0SikYQ1_6fugrip6traitsjNtB4_7GcTrace5trace
FNDA:0,_RNvXsa_NtCsluqq0SikYQ1_6fugrip6traitsfNtB5_7GcTrace5trace
FNDA:0,_RNvXsb_NtCsluqq0SikYQ1_6fugrip6traitsdNtB5_7GcTrace5trace
FNDA:0,_RNvXsc_NtCsluqq0SikYQ1_6fugrip6traitsbNtB5_7GcTrace5trace
FNDA:0,_RNvXsd_NtCsluqq0SikYQ1_6fugrip6traitscNtB5_7GcTrace5trace
FNDA:0,_RNvYpNtNtCsluqq0SikYQ1_6fugrip6traits7GcStats12custom_statsB7_
FNDA:0,_RNvXsf_NtCs8zwcuAlrZd5_6fugrip6traitsINtNtCs6SNw0SRvItZ_4core6option6OptionlENtB5_7GcTrace5traceCs5bXVDiB1iVE_21traits_expanded_tests
FNDA:0,_RNvXse_NtCs8zwcuAlrZd5_6fugrip6traitsINtNtCshDtJu3Ru83O_5alloc3vec3VeclENtB5_7GcTrace5traceCs5bXVDiB1iVE_21traits_expanded_tests
FNDA:0,_RNvXsh_NtCs8zwcuAlrZd5_6fugrip6traitsTlENtB5_7GcTrace5traceCs5bXVDiB1iVE_21traits_expanded_tests
FNDA:0,_RNvXsi_NtCs8zwcuAlrZd5_6fugrip6traitsTllENtB5_7GcTrace5traceCs5bXVDiB1iVE_21traits_expanded_tests
FNDA:0,_RNvXsj_NtCs8zwcuAlrZd5_6fugrip6traitsTlllENtB5_7GcTrace5traceCs5bXVDiB1iVE_21traits_expanded_tests
FNDA:0,_RNvXsg_NtCs8zwcuAlrZd5_6fugrip6traitsINtNtCshDtJu3Ru83O_5alloc5boxed3BoxlENtB5_7GcTrace5traceCs5bXVDiB1iVE_21traits_expanded_tests
FNDA:0,_RNvXNtCs8zwcuAlrZd5_6fugrip6traitslNtB2_7GcTrace5trace
FNDA:0,_RNvXs1_NtCs8zwcuAlrZd5_6fugrip6traitsuNtB5_7GcTrace5trace
FNDA:0,_RNvXs2_NtCs8zwcuAlrZd5_6fugrip6traitshNtB5_7GcTrace5trace
FNDA:0,_RNvXs3_NtCs8zwcuAlrZd5_6fugrip6traitsaNtB5_7GcTrace5trace
FNDA:0,_RNvXs4_NtCs8zwcuAlrZd5_6fugrip6traitstNtB5_7GcTrace5trace
FNDA:0,_RNvXs5_NtCs8zwcuAlrZd5_6fugrip6traitssNtB5_7GcTrace5trace
FNDA:0,_RNvXs6_NtCs8zwcuAlrZd5_6fugrip6traitsmNtB5_7GcTrace5trace
FNDA:0,_RNvXs7_NtCs8zwcuAlrZd5_6fugrip6traitsxNtB5_7GcTrace5trace
FNDA:0,_RNvXs8_NtCs8zwcuAlrZd5_6fugrip6traitsyNtB5_7GcTrace5trace
FNDA:0,_RNvXs9_NtCs8zwcuAlrZd5_6fugrip6traitsiNtB5_7GcTrace5trace
FNDA:0,_RNvXs_NtCs8zwcuAlrZd5_6fugrip6traitsjNtB4_7GcTrace5trace
FNDA:0,_RNvXsa_NtCs8zwcuAlrZd5_6fugrip6traitsfNtB5_7GcTrace5trace
FNDA:0,_RNvXsb_NtCs8zwcuAlrZd5_6fugrip6traitsdNtB5_7GcTrace5trace
FNDA:0,_RNvXsc_NtCs8zwcuAlrZd5_6fugrip6traitsbNtB5_7GcTrace5trace
FNDA:0,_RNvXsd_NtCs8zwcuAlrZd5_6fugrip6traitscNtB5_7GcTrace5trace
FNDA:0,_RNvXs0_NtCs8zwcuAlrZd5_6fugrip6traitsNtNtCshDtJu3Ru83O_5alloc6string6StringNtB5_7GcTrace5trace
FNDA:0,_RNvXsg_NtCs8zwcuAlrZd5_6fugrip6traitsINtNtCshDtJu3Ru83O_5alloc5boxed3BoxlENtB5_7GcTrace5traceCs56HuWgCOMmT_12traits_tests
FNDA:0,_RNvXsh_NtCs8zwcuAlrZd5_6fugrip6traitsTlENtB5_7GcTrace5traceCs56HuWgCOMmT_12traits_tests
FNDA:0,_RNvXsi_NtCs8zwcuAlrZd5_6fugrip6traitsTllENtB5_7GcTrace5traceCs56HuWgCOMmT_12traits_tests
FNDA:0,_RNvXsj_NtCs8zwcuAlrZd5_6fugrip6traitsTlllENtB5_7GcTrace5traceCs56HuWgCOMmT_12traits_tests
FNDA:0,_RNvXse_NtCs8zwcuAlrZd5_6fugrip6traitsINtNtCshDtJu3Ru83O_5alloc3vec3VeclENtB5_7GcTrace5traceCs56HuWgCOMmT_12traits_tests
FNDA:0,_RNvXsf_NtCs8zwcuAlrZd5_6fugrip6traitsINtNtCs6SNw0SRvItZ_4core6option6OptionlENtB5_7GcTrace5traceCs56HuWgCOMmT_12traits_tests
FNF:23
FNH:0
DA:66,0
DA:70,0
DA:74,0
DA:78,0
DA:83,0
DA:87,0
DA:91,0
DA:95,0
DA:99,0
DA:103,0
DA:107,0
DA:111,0
DA:115,0
DA:119,0
DA:123,0
DA:127,0
DA:132,0
DA:133,0
DA:134,0
DA:136,0
DA:140,0
DA:141,0
DA:142,0
DA:143,0
DA:144,0
DA:148,0
DA:149,0
DA:150,0
DA:155,0
DA:156,0
DA:157,0
DA:161,0
DA:162,0
DA:163,0
DA:164,0
DA:165,0
DA:166,0
DA:170,0
DA:171,0
DA:172,0
DA:173,0
DA:174,0
DA:175,0
DA:176,0
DA:340,0
DA:341,0
DA:342,0
BRF:0
BRH:0
LF:47
LH:0
end_of_record